
ctarget:     file format elf64-x86-64


Disassembly of section .init:

0000000000401000 <_init>:
  401000:	f3 0f 1e fa          	endbr64 
  401004:	48 83 ec 08          	sub    $0x8,%rsp
  401008:	48 8b 05 e9 5f 00 00 	mov    0x5fe9(%rip),%rax        # 406ff8 <__gmon_start__>
  40100f:	48 85 c0             	test   %rax,%rax
  401012:	74 02                	je     401016 <_init+0x16>
  401014:	ff d0                	call   *%rax
  401016:	48 83 c4 08          	add    $0x8,%rsp
  40101a:	c3                   	ret    

Disassembly of section .plt:

0000000000401020 <.plt>:
  401020:	ff 35 e2 5f 00 00    	push   0x5fe2(%rip)        # 407008 <_GLOBAL_OFFSET_TABLE_+0x8>
  401026:	f2 ff 25 e3 5f 00 00 	bnd jmp *0x5fe3(%rip)        # 407010 <_GLOBAL_OFFSET_TABLE_+0x10>
  40102d:	0f 1f 00             	nopl   (%rax)
  401030:	f3 0f 1e fa          	endbr64 
  401034:	68 00 00 00 00       	push   $0x0
  401039:	f2 e9 e1 ff ff ff    	bnd jmp 401020 <.plt>
  40103f:	90                   	nop
  401040:	f3 0f 1e fa          	endbr64 
  401044:	68 01 00 00 00       	push   $0x1
  401049:	f2 e9 d1 ff ff ff    	bnd jmp 401020 <.plt>
  40104f:	90                   	nop
  401050:	f3 0f 1e fa          	endbr64 
  401054:	68 02 00 00 00       	push   $0x2
  401059:	f2 e9 c1 ff ff ff    	bnd jmp 401020 <.plt>
  40105f:	90                   	nop
  401060:	f3 0f 1e fa          	endbr64 
  401064:	68 03 00 00 00       	push   $0x3
  401069:	f2 e9 b1 ff ff ff    	bnd jmp 401020 <.plt>
  40106f:	90                   	nop
  401070:	f3 0f 1e fa          	endbr64 
  401074:	68 04 00 00 00       	push   $0x4
  401079:	f2 e9 a1 ff ff ff    	bnd jmp 401020 <.plt>
  40107f:	90                   	nop
  401080:	f3 0f 1e fa          	endbr64 
  401084:	68 05 00 00 00       	push   $0x5
  401089:	f2 e9 91 ff ff ff    	bnd jmp 401020 <.plt>
  40108f:	90                   	nop
  401090:	f3 0f 1e fa          	endbr64 
  401094:	68 06 00 00 00       	push   $0x6
  401099:	f2 e9 81 ff ff ff    	bnd jmp 401020 <.plt>
  40109f:	90                   	nop
  4010a0:	f3 0f 1e fa          	endbr64 
  4010a4:	68 07 00 00 00       	push   $0x7
  4010a9:	f2 e9 71 ff ff ff    	bnd jmp 401020 <.plt>
  4010af:	90                   	nop
  4010b0:	f3 0f 1e fa          	endbr64 
  4010b4:	68 08 00 00 00       	push   $0x8
  4010b9:	f2 e9 61 ff ff ff    	bnd jmp 401020 <.plt>
  4010bf:	90                   	nop
  4010c0:	f3 0f 1e fa          	endbr64 
  4010c4:	68 09 00 00 00       	push   $0x9
  4010c9:	f2 e9 51 ff ff ff    	bnd jmp 401020 <.plt>
  4010cf:	90                   	nop
  4010d0:	f3 0f 1e fa          	endbr64 
  4010d4:	68 0a 00 00 00       	push   $0xa
  4010d9:	f2 e9 41 ff ff ff    	bnd jmp 401020 <.plt>
  4010df:	90                   	nop
  4010e0:	f3 0f 1e fa          	endbr64 
  4010e4:	68 0b 00 00 00       	push   $0xb
  4010e9:	f2 e9 31 ff ff ff    	bnd jmp 401020 <.plt>
  4010ef:	90                   	nop
  4010f0:	f3 0f 1e fa          	endbr64 
  4010f4:	68 0c 00 00 00       	push   $0xc
  4010f9:	f2 e9 21 ff ff ff    	bnd jmp 401020 <.plt>
  4010ff:	90                   	nop
  401100:	f3 0f 1e fa          	endbr64 
  401104:	68 0d 00 00 00       	push   $0xd
  401109:	f2 e9 11 ff ff ff    	bnd jmp 401020 <.plt>
  40110f:	90                   	nop
  401110:	f3 0f 1e fa          	endbr64 
  401114:	68 0e 00 00 00       	push   $0xe
  401119:	f2 e9 01 ff ff ff    	bnd jmp 401020 <.plt>
  40111f:	90                   	nop
  401120:	f3 0f 1e fa          	endbr64 
  401124:	68 0f 00 00 00       	push   $0xf
  401129:	f2 e9 f1 fe ff ff    	bnd jmp 401020 <.plt>
  40112f:	90                   	nop
  401130:	f3 0f 1e fa          	endbr64 
  401134:	68 10 00 00 00       	push   $0x10
  401139:	f2 e9 e1 fe ff ff    	bnd jmp 401020 <.plt>
  40113f:	90                   	nop
  401140:	f3 0f 1e fa          	endbr64 
  401144:	68 11 00 00 00       	push   $0x11
  401149:	f2 e9 d1 fe ff ff    	bnd jmp 401020 <.plt>
  40114f:	90                   	nop
  401150:	f3 0f 1e fa          	endbr64 
  401154:	68 12 00 00 00       	push   $0x12
  401159:	f2 e9 c1 fe ff ff    	bnd jmp 401020 <.plt>
  40115f:	90                   	nop
  401160:	f3 0f 1e fa          	endbr64 
  401164:	68 13 00 00 00       	push   $0x13
  401169:	f2 e9 b1 fe ff ff    	bnd jmp 401020 <.plt>
  40116f:	90                   	nop
  401170:	f3 0f 1e fa          	endbr64 
  401174:	68 14 00 00 00       	push   $0x14
  401179:	f2 e9 a1 fe ff ff    	bnd jmp 401020 <.plt>
  40117f:	90                   	nop
  401180:	f3 0f 1e fa          	endbr64 
  401184:	68 15 00 00 00       	push   $0x15
  401189:	f2 e9 91 fe ff ff    	bnd jmp 401020 <.plt>
  40118f:	90                   	nop
  401190:	f3 0f 1e fa          	endbr64 
  401194:	68 16 00 00 00       	push   $0x16
  401199:	f2 e9 81 fe ff ff    	bnd jmp 401020 <.plt>
  40119f:	90                   	nop
  4011a0:	f3 0f 1e fa          	endbr64 
  4011a4:	68 17 00 00 00       	push   $0x17
  4011a9:	f2 e9 71 fe ff ff    	bnd jmp 401020 <.plt>
  4011af:	90                   	nop
  4011b0:	f3 0f 1e fa          	endbr64 
  4011b4:	68 18 00 00 00       	push   $0x18
  4011b9:	f2 e9 61 fe ff ff    	bnd jmp 401020 <.plt>
  4011bf:	90                   	nop
  4011c0:	f3 0f 1e fa          	endbr64 
  4011c4:	68 19 00 00 00       	push   $0x19
  4011c9:	f2 e9 51 fe ff ff    	bnd jmp 401020 <.plt>
  4011cf:	90                   	nop
  4011d0:	f3 0f 1e fa          	endbr64 
  4011d4:	68 1a 00 00 00       	push   $0x1a
  4011d9:	f2 e9 41 fe ff ff    	bnd jmp 401020 <.plt>
  4011df:	90                   	nop
  4011e0:	f3 0f 1e fa          	endbr64 
  4011e4:	68 1b 00 00 00       	push   $0x1b
  4011e9:	f2 e9 31 fe ff ff    	bnd jmp 401020 <.plt>
  4011ef:	90                   	nop
  4011f0:	f3 0f 1e fa          	endbr64 
  4011f4:	68 1c 00 00 00       	push   $0x1c
  4011f9:	f2 e9 21 fe ff ff    	bnd jmp 401020 <.plt>
  4011ff:	90                   	nop
  401200:	f3 0f 1e fa          	endbr64 
  401204:	68 1d 00 00 00       	push   $0x1d
  401209:	f2 e9 11 fe ff ff    	bnd jmp 401020 <.plt>
  40120f:	90                   	nop
  401210:	f3 0f 1e fa          	endbr64 
  401214:	68 1e 00 00 00       	push   $0x1e
  401219:	f2 e9 01 fe ff ff    	bnd jmp 401020 <.plt>
  40121f:	90                   	nop
  401220:	f3 0f 1e fa          	endbr64 
  401224:	68 1f 00 00 00       	push   $0x1f
  401229:	f2 e9 f1 fd ff ff    	bnd jmp 401020 <.plt>
  40122f:	90                   	nop
  401230:	f3 0f 1e fa          	endbr64 
  401234:	68 20 00 00 00       	push   $0x20
  401239:	f2 e9 e1 fd ff ff    	bnd jmp 401020 <.plt>
  40123f:	90                   	nop
  401240:	f3 0f 1e fa          	endbr64 
  401244:	68 21 00 00 00       	push   $0x21
  401249:	f2 e9 d1 fd ff ff    	bnd jmp 401020 <.plt>
  40124f:	90                   	nop

Disassembly of section .plt.sec:

0000000000401250 <strcasecmp@plt>:
  401250:	f3 0f 1e fa          	endbr64 
  401254:	f2 ff 25 bd 5d 00 00 	bnd jmp *0x5dbd(%rip)        # 407018 <strcasecmp@GLIBC_2.2.5>
  40125b:	0f 1f 44 00 00       	nopl   0x0(%rax,%rax,1)

0000000000401260 <__errno_location@plt>:
  401260:	f3 0f 1e fa          	endbr64 
  401264:	f2 ff 25 b5 5d 00 00 	bnd jmp *0x5db5(%rip)        # 407020 <__errno_location@GLIBC_2.2.5>
  40126b:	0f 1f 44 00 00       	nopl   0x0(%rax,%rax,1)

0000000000401270 <srandom@plt>:
  401270:	f3 0f 1e fa          	endbr64 
  401274:	f2 ff 25 ad 5d 00 00 	bnd jmp *0x5dad(%rip)        # 407028 <srandom@GLIBC_2.2.5>
  40127b:	0f 1f 44 00 00       	nopl   0x0(%rax,%rax,1)

0000000000401280 <strncpy@plt>:
  401280:	f3 0f 1e fa          	endbr64 
  401284:	f2 ff 25 a5 5d 00 00 	bnd jmp *0x5da5(%rip)        # 407030 <strncpy@GLIBC_2.2.5>
  40128b:	0f 1f 44 00 00       	nopl   0x0(%rax,%rax,1)

0000000000401290 <strncmp@plt>:
  401290:	f3 0f 1e fa          	endbr64 
  401294:	f2 ff 25 9d 5d 00 00 	bnd jmp *0x5d9d(%rip)        # 407038 <strncmp@GLIBC_2.2.5>
  40129b:	0f 1f 44 00 00       	nopl   0x0(%rax,%rax,1)

00000000004012a0 <strcpy@plt>:
  4012a0:	f3 0f 1e fa          	endbr64 
  4012a4:	f2 ff 25 95 5d 00 00 	bnd jmp *0x5d95(%rip)        # 407040 <strcpy@GLIBC_2.2.5>
  4012ab:	0f 1f 44 00 00       	nopl   0x0(%rax,%rax,1)

00000000004012b0 <puts@plt>:
  4012b0:	f3 0f 1e fa          	endbr64 
  4012b4:	f2 ff 25 8d 5d 00 00 	bnd jmp *0x5d8d(%rip)        # 407048 <puts@GLIBC_2.2.5>
  4012bb:	0f 1f 44 00 00       	nopl   0x0(%rax,%rax,1)

00000000004012c0 <write@plt>:
  4012c0:	f3 0f 1e fa          	endbr64 
  4012c4:	f2 ff 25 85 5d 00 00 	bnd jmp *0x5d85(%rip)        # 407050 <write@GLIBC_2.2.5>
  4012cb:	0f 1f 44 00 00       	nopl   0x0(%rax,%rax,1)

00000000004012d0 <mmap@plt>:
  4012d0:	f3 0f 1e fa          	endbr64 
  4012d4:	f2 ff 25 7d 5d 00 00 	bnd jmp *0x5d7d(%rip)        # 407058 <mmap@GLIBC_2.2.5>
  4012db:	0f 1f 44 00 00       	nopl   0x0(%rax,%rax,1)

00000000004012e0 <memset@plt>:
  4012e0:	f3 0f 1e fa          	endbr64 
  4012e4:	f2 ff 25 75 5d 00 00 	bnd jmp *0x5d75(%rip)        # 407060 <memset@GLIBC_2.2.5>
  4012eb:	0f 1f 44 00 00       	nopl   0x0(%rax,%rax,1)

00000000004012f0 <alarm@plt>:
  4012f0:	f3 0f 1e fa          	endbr64 
  4012f4:	f2 ff 25 6d 5d 00 00 	bnd jmp *0x5d6d(%rip)        # 407068 <alarm@GLIBC_2.2.5>
  4012fb:	0f 1f 44 00 00       	nopl   0x0(%rax,%rax,1)

0000000000401300 <close@plt>:
  401300:	f3 0f 1e fa          	endbr64 
  401304:	f2 ff 25 65 5d 00 00 	bnd jmp *0x5d65(%rip)        # 407070 <close@GLIBC_2.2.5>
  40130b:	0f 1f 44 00 00       	nopl   0x0(%rax,%rax,1)

0000000000401310 <read@plt>:
  401310:	f3 0f 1e fa          	endbr64 
  401314:	f2 ff 25 5d 5d 00 00 	bnd jmp *0x5d5d(%rip)        # 407078 <read@GLIBC_2.2.5>
  40131b:	0f 1f 44 00 00       	nopl   0x0(%rax,%rax,1)

0000000000401320 <strcmp@plt>:
  401320:	f3 0f 1e fa          	endbr64 
  401324:	f2 ff 25 55 5d 00 00 	bnd jmp *0x5d55(%rip)        # 407080 <strcmp@GLIBC_2.2.5>
  40132b:	0f 1f 44 00 00       	nopl   0x0(%rax,%rax,1)

0000000000401330 <signal@plt>:
  401330:	f3 0f 1e fa          	endbr64 
  401334:	f2 ff 25 4d 5d 00 00 	bnd jmp *0x5d4d(%rip)        # 407088 <signal@GLIBC_2.2.5>
  40133b:	0f 1f 44 00 00       	nopl   0x0(%rax,%rax,1)

0000000000401340 <gethostbyname@plt>:
  401340:	f3 0f 1e fa          	endbr64 
  401344:	f2 ff 25 45 5d 00 00 	bnd jmp *0x5d45(%rip)        # 407090 <gethostbyname@GLIBC_2.2.5>
  40134b:	0f 1f 44 00 00       	nopl   0x0(%rax,%rax,1)

0000000000401350 <__memmove_chk@plt>:
  401350:	f3 0f 1e fa          	endbr64 
  401354:	f2 ff 25 3d 5d 00 00 	bnd jmp *0x5d3d(%rip)        # 407098 <__memmove_chk@GLIBC_2.3.4>
  40135b:	0f 1f 44 00 00       	nopl   0x0(%rax,%rax,1)

0000000000401360 <strtol@plt>:
  401360:	f3 0f 1e fa          	endbr64 
  401364:	f2 ff 25 35 5d 00 00 	bnd jmp *0x5d35(%rip)        # 4070a0 <strtol@GLIBC_2.2.5>
  40136b:	0f 1f 44 00 00       	nopl   0x0(%rax,%rax,1)

0000000000401370 <memcpy@plt>:
  401370:	f3 0f 1e fa          	endbr64 
  401374:	f2 ff 25 2d 5d 00 00 	bnd jmp *0x5d2d(%rip)        # 4070a8 <memcpy@GLIBC_2.14>
  40137b:	0f 1f 44 00 00       	nopl   0x0(%rax,%rax,1)

0000000000401380 <time@plt>:
  401380:	f3 0f 1e fa          	endbr64 
  401384:	f2 ff 25 25 5d 00 00 	bnd jmp *0x5d25(%rip)        # 4070b0 <time@GLIBC_2.2.5>
  40138b:	0f 1f 44 00 00       	nopl   0x0(%rax,%rax,1)

0000000000401390 <random@plt>:
  401390:	f3 0f 1e fa          	endbr64 
  401394:	f2 ff 25 1d 5d 00 00 	bnd jmp *0x5d1d(%rip)        # 4070b8 <random@GLIBC_2.2.5>
  40139b:	0f 1f 44 00 00       	nopl   0x0(%rax,%rax,1)

00000000004013a0 <__isoc99_sscanf@plt>:
  4013a0:	f3 0f 1e fa          	endbr64 
  4013a4:	f2 ff 25 15 5d 00 00 	bnd jmp *0x5d15(%rip)        # 4070c0 <__isoc99_sscanf@GLIBC_2.7>
  4013ab:	0f 1f 44 00 00       	nopl   0x0(%rax,%rax,1)

00000000004013b0 <munmap@plt>:
  4013b0:	f3 0f 1e fa          	endbr64 
  4013b4:	f2 ff 25 0d 5d 00 00 	bnd jmp *0x5d0d(%rip)        # 4070c8 <munmap@GLIBC_2.2.5>
  4013bb:	0f 1f 44 00 00       	nopl   0x0(%rax,%rax,1)

00000000004013c0 <__printf_chk@plt>:
  4013c0:	f3 0f 1e fa          	endbr64 
  4013c4:	f2 ff 25 05 5d 00 00 	bnd jmp *0x5d05(%rip)        # 4070d0 <__printf_chk@GLIBC_2.3.4>
  4013cb:	0f 1f 44 00 00       	nopl   0x0(%rax,%rax,1)

00000000004013d0 <fopen@plt>:
  4013d0:	f3 0f 1e fa          	endbr64 
  4013d4:	f2 ff 25 fd 5c 00 00 	bnd jmp *0x5cfd(%rip)        # 4070d8 <fopen@GLIBC_2.2.5>
  4013db:	0f 1f 44 00 00       	nopl   0x0(%rax,%rax,1)

00000000004013e0 <getopt@plt>:
  4013e0:	f3 0f 1e fa          	endbr64 
  4013e4:	f2 ff 25 f5 5c 00 00 	bnd jmp *0x5cf5(%rip)        # 4070e0 <getopt@GLIBC_2.2.5>
  4013eb:	0f 1f 44 00 00       	nopl   0x0(%rax,%rax,1)

00000000004013f0 <strtoul@plt>:
  4013f0:	f3 0f 1e fa          	endbr64 
  4013f4:	f2 ff 25 ed 5c 00 00 	bnd jmp *0x5ced(%rip)        # 4070e8 <strtoul@GLIBC_2.2.5>
  4013fb:	0f 1f 44 00 00       	nopl   0x0(%rax,%rax,1)

0000000000401400 <gethostname@plt>:
  401400:	f3 0f 1e fa          	endbr64 
  401404:	f2 ff 25 e5 5c 00 00 	bnd jmp *0x5ce5(%rip)        # 4070f0 <gethostname@GLIBC_2.2.5>
  40140b:	0f 1f 44 00 00       	nopl   0x0(%rax,%rax,1)

0000000000401410 <exit@plt>:
  401410:	f3 0f 1e fa          	endbr64 
  401414:	f2 ff 25 dd 5c 00 00 	bnd jmp *0x5cdd(%rip)        # 4070f8 <exit@GLIBC_2.2.5>
  40141b:	0f 1f 44 00 00       	nopl   0x0(%rax,%rax,1)

0000000000401420 <connect@plt>:
  401420:	f3 0f 1e fa          	endbr64 
  401424:	f2 ff 25 d5 5c 00 00 	bnd jmp *0x5cd5(%rip)        # 407100 <connect@GLIBC_2.2.5>
  40142b:	0f 1f 44 00 00       	nopl   0x0(%rax,%rax,1)

0000000000401430 <__fprintf_chk@plt>:
  401430:	f3 0f 1e fa          	endbr64 
  401434:	f2 ff 25 cd 5c 00 00 	bnd jmp *0x5ccd(%rip)        # 407108 <__fprintf_chk@GLIBC_2.3.4>
  40143b:	0f 1f 44 00 00       	nopl   0x0(%rax,%rax,1)

0000000000401440 <getc@plt>:
  401440:	f3 0f 1e fa          	endbr64 
  401444:	f2 ff 25 c5 5c 00 00 	bnd jmp *0x5cc5(%rip)        # 407110 <getc@GLIBC_2.2.5>
  40144b:	0f 1f 44 00 00       	nopl   0x0(%rax,%rax,1)

0000000000401450 <__sprintf_chk@plt>:
  401450:	f3 0f 1e fa          	endbr64 
  401454:	f2 ff 25 bd 5c 00 00 	bnd jmp *0x5cbd(%rip)        # 407118 <__sprintf_chk@GLIBC_2.3.4>
  40145b:	0f 1f 44 00 00       	nopl   0x0(%rax,%rax,1)

0000000000401460 <socket@plt>:
  401460:	f3 0f 1e fa          	endbr64 
  401464:	f2 ff 25 b5 5c 00 00 	bnd jmp *0x5cb5(%rip)        # 407120 <socket@GLIBC_2.2.5>
  40146b:	0f 1f 44 00 00       	nopl   0x0(%rax,%rax,1)

Disassembly of section .text:

0000000000401470 <_start>:
  401470:	f3 0f 1e fa          	endbr64 
  401474:	31 ed                	xor    %ebp,%ebp
  401476:	49 89 d1             	mov    %rdx,%r9
  401479:	5e                   	pop    %rsi
  40147a:	48 89 e2             	mov    %rsp,%rdx
  40147d:	48 83 e4 f0          	and    $0xfffffffffffffff0,%rsp
  401481:	50                   	push   %rax
  401482:	54                   	push   %rsp
  401483:	49 c7 c0 c0 37 40 00 	mov    $0x4037c0,%r8
  40148a:	48 c7 c1 50 37 40 00 	mov    $0x403750,%rcx
  401491:	48 c7 c7 99 17 40 00 	mov    $0x401799,%rdi
  401498:	ff 15 52 5b 00 00    	call   *0x5b52(%rip)        # 406ff0 <__libc_start_main@GLIBC_2.2.5>
  40149e:	f4                   	hlt    
  40149f:	90                   	nop

00000000004014a0 <_dl_relocate_static_pie>:
  4014a0:	f3 0f 1e fa          	endbr64 
  4014a4:	c3                   	ret    
  4014a5:	66 2e 0f 1f 84 00 00 	cs nopw 0x0(%rax,%rax,1)
  4014ac:	00 00 00 
  4014af:	90                   	nop

00000000004014b0 <deregister_tm_clones>:
  4014b0:	b8 b0 74 40 00       	mov    $0x4074b0,%eax
  4014b5:	48 3d b0 74 40 00    	cmp    $0x4074b0,%rax
  4014bb:	74 13                	je     4014d0 <deregister_tm_clones+0x20>
  4014bd:	b8 00 00 00 00       	mov    $0x0,%eax
  4014c2:	48 85 c0             	test   %rax,%rax
  4014c5:	74 09                	je     4014d0 <deregister_tm_clones+0x20>
  4014c7:	bf b0 74 40 00       	mov    $0x4074b0,%edi
  4014cc:	ff e0                	jmp    *%rax
  4014ce:	66 90                	xchg   %ax,%ax
  4014d0:	c3                   	ret    
  4014d1:	66 66 2e 0f 1f 84 00 	data16 cs nopw 0x0(%rax,%rax,1)
  4014d8:	00 00 00 00 
  4014dc:	0f 1f 40 00          	nopl   0x0(%rax)

00000000004014e0 <register_tm_clones>:
  4014e0:	be b0 74 40 00       	mov    $0x4074b0,%esi
  4014e5:	48 81 ee b0 74 40 00 	sub    $0x4074b0,%rsi
  4014ec:	48 89 f0             	mov    %rsi,%rax
  4014ef:	48 c1 ee 3f          	shr    $0x3f,%rsi
  4014f3:	48 c1 f8 03          	sar    $0x3,%rax
  4014f7:	48 01 c6             	add    %rax,%rsi
  4014fa:	48 d1 fe             	sar    %rsi
  4014fd:	74 11                	je     401510 <register_tm_clones+0x30>
  4014ff:	b8 00 00 00 00       	mov    $0x0,%eax
  401504:	48 85 c0             	test   %rax,%rax
  401507:	74 07                	je     401510 <register_tm_clones+0x30>
  401509:	bf b0 74 40 00       	mov    $0x4074b0,%edi
  40150e:	ff e0                	jmp    *%rax
  401510:	c3                   	ret    
  401511:	66 66 2e 0f 1f 84 00 	data16 cs nopw 0x0(%rax,%rax,1)
  401518:	00 00 00 00 
  40151c:	0f 1f 40 00          	nopl   0x0(%rax)

0000000000401520 <__do_global_dtors_aux>:
  401520:	f3 0f 1e fa          	endbr64 
  401524:	80 3d bd 5f 00 00 00 	cmpb   $0x0,0x5fbd(%rip)        # 4074e8 <completed.8060>
  40152b:	75 13                	jne    401540 <__do_global_dtors_aux+0x20>
  40152d:	55                   	push   %rbp
  40152e:	48 89 e5             	mov    %rsp,%rbp
  401531:	e8 7a ff ff ff       	call   4014b0 <deregister_tm_clones>
  401536:	c6 05 ab 5f 00 00 01 	movb   $0x1,0x5fab(%rip)        # 4074e8 <completed.8060>
  40153d:	5d                   	pop    %rbp
  40153e:	c3                   	ret    
  40153f:	90                   	nop
  401540:	c3                   	ret    
  401541:	66 66 2e 0f 1f 84 00 	data16 cs nopw 0x0(%rax,%rax,1)
  401548:	00 00 00 00 
  40154c:	0f 1f 40 00          	nopl   0x0(%rax)

0000000000401550 <frame_dummy>:
  401550:	f3 0f 1e fa          	endbr64 
  401554:	eb 8a                	jmp    4014e0 <register_tm_clones>

0000000000401556 <usage>:
  401556:	50                   	push   %rax
  401557:	58                   	pop    %rax
  401558:	48 83 ec 08          	sub    $0x8,%rsp
  40155c:	48 89 fa             	mov    %rdi,%rdx
  40155f:	83 3d c2 5f 00 00 00 	cmpl   $0x0,0x5fc2(%rip)        # 407528 <is_checker>
  401566:	74 50                	je     4015b8 <usage+0x62>
  401568:	48 8d 35 99 2a 00 00 	lea    0x2a99(%rip),%rsi        # 404008 <_IO_stdin_used+0x8>
  40156f:	bf 01 00 00 00       	mov    $0x1,%edi
  401574:	b8 00 00 00 00       	mov    $0x0,%eax
  401579:	e8 42 fe ff ff       	call   4013c0 <__printf_chk@plt>
  40157e:	48 8d 3d bb 2a 00 00 	lea    0x2abb(%rip),%rdi        # 404040 <_IO_stdin_used+0x40>
  401585:	e8 26 fd ff ff       	call   4012b0 <puts@plt>
  40158a:	48 8d 3d 3f 2c 00 00 	lea    0x2c3f(%rip),%rdi        # 4041d0 <_IO_stdin_used+0x1d0>
  401591:	e8 1a fd ff ff       	call   4012b0 <puts@plt>
  401596:	48 8d 3d cb 2a 00 00 	lea    0x2acb(%rip),%rdi        # 404068 <_IO_stdin_used+0x68>
  40159d:	e8 0e fd ff ff       	call   4012b0 <puts@plt>
  4015a2:	48 8d 3d 41 2c 00 00 	lea    0x2c41(%rip),%rdi        # 4041ea <_IO_stdin_used+0x1ea>
  4015a9:	e8 02 fd ff ff       	call   4012b0 <puts@plt>
  4015ae:	bf 00 00 00 00       	mov    $0x0,%edi
  4015b3:	e8 58 fe ff ff       	call   401410 <exit@plt>
  4015b8:	48 8d 35 47 2c 00 00 	lea    0x2c47(%rip),%rsi        # 404206 <_IO_stdin_used+0x206>
  4015bf:	bf 01 00 00 00       	mov    $0x1,%edi
  4015c4:	b8 00 00 00 00       	mov    $0x0,%eax
  4015c9:	e8 f2 fd ff ff       	call   4013c0 <__printf_chk@plt>
  4015ce:	48 8d 3d bb 2a 00 00 	lea    0x2abb(%rip),%rdi        # 404090 <_IO_stdin_used+0x90>
  4015d5:	e8 d6 fc ff ff       	call   4012b0 <puts@plt>
  4015da:	48 8d 3d d7 2a 00 00 	lea    0x2ad7(%rip),%rdi        # 4040b8 <_IO_stdin_used+0xb8>
  4015e1:	e8 ca fc ff ff       	call   4012b0 <puts@plt>
  4015e6:	48 8d 3d 37 2c 00 00 	lea    0x2c37(%rip),%rdi        # 404224 <_IO_stdin_used+0x224>
  4015ed:	e8 be fc ff ff       	call   4012b0 <puts@plt>
  4015f2:	eb ba                	jmp    4015ae <usage+0x58>

00000000004015f4 <initialize_target>:
  4015f4:	55                   	push   %rbp
  4015f5:	53                   	push   %rbx
  4015f6:	48 81 ec 00 10 00 00 	sub    $0x1000,%rsp
  4015fd:	48 83 0c 24 00       	orq    $0x0,(%rsp)
  401602:	48 81 ec 00 10 00 00 	sub    $0x1000,%rsp
  401609:	48 83 0c 24 00       	orq    $0x0,(%rsp)
  40160e:	48 81 ec 18 01 00 00 	sub    $0x118,%rsp
  401615:	89 f5                	mov    %esi,%ebp
  401617:	64 48 8b 04 25 28 00 	mov    %fs:0x28,%rax
  40161e:	00 00 
  401620:	48 89 84 24 08 21 00 	mov    %rax,0x2108(%rsp)
  401627:	00 
  401628:	31 c0                	xor    %eax,%eax
  40162a:	89 3d e8 5e 00 00    	mov    %edi,0x5ee8(%rip)        # 407518 <check_level>
  401630:	8b 3d 1a 5b 00 00    	mov    0x5b1a(%rip),%edi        # 407150 <target_id>
  401636:	e8 e9 20 00 00       	call   403724 <gencookie>
  40163b:	89 c7                	mov    %eax,%edi
  40163d:	89 05 e1 5e 00 00    	mov    %eax,0x5ee1(%rip)        # 407524 <cookie>
  401643:	e8 dc 20 00 00       	call   403724 <gencookie>
  401648:	89 05 d2 5e 00 00    	mov    %eax,0x5ed2(%rip)        # 407520 <authkey>
  40164e:	8b 05 fc 5a 00 00    	mov    0x5afc(%rip),%eax        # 407150 <target_id>
  401654:	8d 78 01             	lea    0x1(%rax),%edi
  401657:	e8 14 fc ff ff       	call   401270 <srandom@plt>
  40165c:	e8 2f fd ff ff       	call   401390 <random@plt>
  401661:	48 89 c7             	mov    %rax,%rdi
  401664:	e8 9b 03 00 00       	call   401a04 <scramble>
  401669:	89 c3                	mov    %eax,%ebx
  40166b:	85 ed                	test   %ebp,%ebp
  40166d:	75 54                	jne    4016c3 <initialize_target+0xcf>
  40166f:	b8 00 00 00 00       	mov    $0x0,%eax
  401674:	01 d8                	add    %ebx,%eax
  401676:	0f b7 c0             	movzwl %ax,%eax
  401679:	8d 04 c5 00 01 00 00 	lea    0x100(,%rax,8),%eax
  401680:	89 c0                	mov    %eax,%eax
  401682:	48 89 05 1f 5e 00 00 	mov    %rax,0x5e1f(%rip)        # 4074a8 <buf_offset>
  401689:	c6 05 b8 6a 00 00 63 	movb   $0x63,0x6ab8(%rip)        # 408148 <target_prefix>
  401690:	83 3d 09 5e 00 00 00 	cmpl   $0x0,0x5e09(%rip)        # 4074a0 <notify>
  401697:	74 09                	je     4016a2 <initialize_target+0xae>
  401699:	83 3d 88 5e 00 00 00 	cmpl   $0x0,0x5e88(%rip)        # 407528 <is_checker>
  4016a0:	74 3a                	je     4016dc <initialize_target+0xe8>
  4016a2:	48 8b 84 24 08 21 00 	mov    0x2108(%rsp),%rax
  4016a9:	00 
  4016aa:	64 48 33 04 25 28 00 	xor    %fs:0x28,%rax
  4016b1:	00 00 
  4016b3:	0f 85 db 00 00 00    	jne    401794 <initialize_target+0x1a0>
  4016b9:	48 81 c4 18 21 00 00 	add    $0x2118,%rsp
  4016c0:	5b                   	pop    %rbx
  4016c1:	5d                   	pop    %rbp
  4016c2:	c3                   	ret    
  4016c3:	bf 00 00 00 00       	mov    $0x0,%edi
  4016c8:	e8 b3 fc ff ff       	call   401380 <time@plt>
  4016cd:	48 89 c7             	mov    %rax,%rdi
  4016d0:	e8 9b fb ff ff       	call   401270 <srandom@plt>
  4016d5:	e8 b6 fc ff ff       	call   401390 <random@plt>
  4016da:	eb 98                	jmp    401674 <initialize_target+0x80>
  4016dc:	48 89 e7             	mov    %rsp,%rdi
  4016df:	be 00 01 00 00       	mov    $0x100,%esi
  4016e4:	e8 17 fd ff ff       	call   401400 <gethostname@plt>
  4016e9:	89 c5                	mov    %eax,%ebp
  4016eb:	85 c0                	test   %eax,%eax
  4016ed:	75 26                	jne    401715 <initialize_target+0x121>
  4016ef:	89 c3                	mov    %eax,%ebx
  4016f1:	48 63 c3             	movslq %ebx,%rax
  4016f4:	48 8d 15 85 5a 00 00 	lea    0x5a85(%rip),%rdx        # 407180 <host_table>
  4016fb:	48 8b 3c c2          	mov    (%rdx,%rax,8),%rdi
  4016ff:	48 85 ff             	test   %rdi,%rdi
  401702:	74 2c                	je     401730 <initialize_target+0x13c>
  401704:	48 89 e6             	mov    %rsp,%rsi
  401707:	e8 44 fb ff ff       	call   401250 <strcasecmp@plt>
  40170c:	85 c0                	test   %eax,%eax
  40170e:	74 1b                	je     40172b <initialize_target+0x137>
  401710:	83 c3 01             	add    $0x1,%ebx
  401713:	eb dc                	jmp    4016f1 <initialize_target+0xfd>
  401715:	48 8d 3d cc 29 00 00 	lea    0x29cc(%rip),%rdi        # 4040e8 <_IO_stdin_used+0xe8>
  40171c:	e8 8f fb ff ff       	call   4012b0 <puts@plt>
  401721:	bf 08 00 00 00       	mov    $0x8,%edi
  401726:	e8 e5 fc ff ff       	call   401410 <exit@plt>
  40172b:	bd 01 00 00 00       	mov    $0x1,%ebp
  401730:	85 ed                	test   %ebp,%ebp
  401732:	74 3d                	je     401771 <initialize_target+0x17d>
  401734:	48 8d bc 24 00 01 00 	lea    0x100(%rsp),%rdi
  40173b:	00 
  40173c:	e8 28 1d 00 00       	call   403469 <init_driver>
  401741:	85 c0                	test   %eax,%eax
  401743:	0f 89 59 ff ff ff    	jns    4016a2 <initialize_target+0xae>
  401749:	48 8d 94 24 00 01 00 	lea    0x100(%rsp),%rdx
  401750:	00 
  401751:	48 8d 35 08 2a 00 00 	lea    0x2a08(%rip),%rsi        # 404160 <_IO_stdin_used+0x160>
  401758:	bf 01 00 00 00       	mov    $0x1,%edi
  40175d:	b8 00 00 00 00       	mov    $0x0,%eax
  401762:	e8 59 fc ff ff       	call   4013c0 <__printf_chk@plt>
  401767:	bf 08 00 00 00       	mov    $0x8,%edi
  40176c:	e8 9f fc ff ff       	call   401410 <exit@plt>
  401771:	48 89 e2             	mov    %rsp,%rdx
  401774:	48 8d 35 a5 29 00 00 	lea    0x29a5(%rip),%rsi        # 404120 <_IO_stdin_used+0x120>
  40177b:	bf 01 00 00 00       	mov    $0x1,%edi
  401780:	b8 00 00 00 00       	mov    $0x0,%eax
  401785:	e8 36 fc ff ff       	call   4013c0 <__printf_chk@plt>
  40178a:	bf 08 00 00 00       	mov    $0x8,%edi
  40178f:	e8 7c fc ff ff       	call   401410 <exit@plt>
  401794:	e8 f2 0f 00 00       	call   40278b <__stack_chk_fail>

0000000000401799 <main>:
  401799:	f3 0f 1e fa          	endbr64 
  40179d:	41 56                	push   %r14
  40179f:	41 55                	push   %r13
  4017a1:	41 54                	push   %r12
  4017a3:	55                   	push   %rbp
  4017a4:	53                   	push   %rbx
  4017a5:	48 83 ec 60          	sub    $0x60,%rsp
  4017a9:	89 fd                	mov    %edi,%ebp
  4017ab:	48 89 f3             	mov    %rsi,%rbx
  4017ae:	64 48 8b 04 25 28 00 	mov    %fs:0x28,%rax
  4017b5:	00 00 
  4017b7:	48 89 44 24 58       	mov    %rax,0x58(%rsp)
  4017bc:	31 c0                	xor    %eax,%eax
  4017be:	48 b8 53 70 69 72 69 	movabs $0x6465746972697053,%rax
  4017c5:	74 65 64 
  4017c8:	48 89 04 24          	mov    %rax,(%rsp)
  4017cc:	c7 44 24 08 41 77 61 	movl   $0x79617741,0x8(%rsp)
  4017d3:	79 
  4017d4:	66 c7 44 24 0c 43 4e 	movw   $0x4e43,0xc(%rsp)
  4017db:	c6 44 24 0e 00       	movb   $0x0,0xe(%rsp)
  4017e0:	48 c7 c6 7a 26 40 00 	mov    $0x40267a,%rsi
  4017e7:	bf 0b 00 00 00       	mov    $0xb,%edi
  4017ec:	e8 3f fb ff ff       	call   401330 <signal@plt>
  4017f1:	48 c7 c6 20 26 40 00 	mov    $0x402620,%rsi
  4017f8:	bf 07 00 00 00       	mov    $0x7,%edi
  4017fd:	e8 2e fb ff ff       	call   401330 <signal@plt>
  401802:	48 c7 c6 d4 26 40 00 	mov    $0x4026d4,%rsi
  401809:	bf 04 00 00 00       	mov    $0x4,%edi
  40180e:	e8 1d fb ff ff       	call   401330 <signal@plt>
  401813:	83 3d 0e 5d 00 00 00 	cmpl   $0x0,0x5d0e(%rip)        # 407528 <is_checker>
  40181a:	75 26                	jne    401842 <main+0xa9>
  40181c:	4c 8d 25 24 2a 00 00 	lea    0x2a24(%rip),%r12        # 404247 <_IO_stdin_used+0x247>
  401823:	48 8b 05 96 5c 00 00 	mov    0x5c96(%rip),%rax        # 4074c0 <stdin@GLIBC_2.2.5>
  40182a:	48 89 05 df 5c 00 00 	mov    %rax,0x5cdf(%rip)        # 407510 <infile>
  401831:	41 bd 00 00 00 00    	mov    $0x0,%r13d
  401837:	41 be 00 00 00 00    	mov    $0x0,%r14d
  40183d:	e9 8d 00 00 00       	jmp    4018cf <main+0x136>
  401842:	48 c7 c6 2e 27 40 00 	mov    $0x40272e,%rsi
  401849:	bf 0e 00 00 00       	mov    $0xe,%edi
  40184e:	e8 dd fa ff ff       	call   401330 <signal@plt>
  401853:	bf 02 00 00 00       	mov    $0x2,%edi
  401858:	e8 93 fa ff ff       	call   4012f0 <alarm@plt>
  40185d:	4c 8d 25 d9 29 00 00 	lea    0x29d9(%rip),%r12        # 40423d <_IO_stdin_used+0x23d>
  401864:	eb bd                	jmp    401823 <main+0x8a>
  401866:	48 8b 3b             	mov    (%rbx),%rdi
  401869:	e8 e8 fc ff ff       	call   401556 <usage>
  40186e:	48 8d 35 9f 2a 00 00 	lea    0x2a9f(%rip),%rsi        # 404314 <_IO_stdin_used+0x314>
  401875:	48 8b 3d 4c 5c 00 00 	mov    0x5c4c(%rip),%rdi        # 4074c8 <optarg@GLIBC_2.2.5>
  40187c:	e8 4f fb ff ff       	call   4013d0 <fopen@plt>
  401881:	48 89 05 88 5c 00 00 	mov    %rax,0x5c88(%rip)        # 407510 <infile>
  401888:	48 85 c0             	test   %rax,%rax
  40188b:	75 42                	jne    4018cf <main+0x136>
  40188d:	48 8b 0d 34 5c 00 00 	mov    0x5c34(%rip),%rcx        # 4074c8 <optarg@GLIBC_2.2.5>
  401894:	48 8d 15 b1 29 00 00 	lea    0x29b1(%rip),%rdx        # 40424c <_IO_stdin_used+0x24c>
  40189b:	be 01 00 00 00       	mov    $0x1,%esi
  4018a0:	48 8b 3d 39 5c 00 00 	mov    0x5c39(%rip),%rdi        # 4074e0 <stderr@GLIBC_2.2.5>
  4018a7:	e8 84 fb ff ff       	call   401430 <__fprintf_chk@plt>
  4018ac:	b8 01 00 00 00       	mov    $0x1,%eax
  4018b1:	e9 2c 01 00 00       	jmp    4019e2 <main+0x249>
  4018b6:	ba 10 00 00 00       	mov    $0x10,%edx
  4018bb:	be 00 00 00 00       	mov    $0x0,%esi
  4018c0:	48 8b 3d 01 5c 00 00 	mov    0x5c01(%rip),%rdi        # 4074c8 <optarg@GLIBC_2.2.5>
  4018c7:	e8 24 fb ff ff       	call   4013f0 <strtoul@plt>
  4018cc:	41 89 c6             	mov    %eax,%r14d
  4018cf:	4c 89 e2             	mov    %r12,%rdx
  4018d2:	48 89 de             	mov    %rbx,%rsi
  4018d5:	89 ef                	mov    %ebp,%edi
  4018d7:	e8 04 fb ff ff       	call   4013e0 <getopt@plt>
  4018dc:	3c ff                	cmp    $0xff,%al
  4018de:	74 7b                	je     40195b <main+0x1c2>
  4018e0:	0f be c8             	movsbl %al,%ecx
  4018e3:	83 e8 61             	sub    $0x61,%eax
  4018e6:	3c 14                	cmp    $0x14,%al
  4018e8:	77 51                	ja     40193b <main+0x1a2>
  4018ea:	0f b6 c0             	movzbl %al,%eax
  4018ed:	48 8d 15 98 29 00 00 	lea    0x2998(%rip),%rdx        # 40428c <_IO_stdin_used+0x28c>
  4018f4:	48 63 04 82          	movslq (%rdx,%rax,4),%rax
  4018f8:	48 01 d0             	add    %rdx,%rax
  4018fb:	3e ff e0             	notrack jmp *%rax
  4018fe:	ba 0a 00 00 00       	mov    $0xa,%edx
  401903:	be 00 00 00 00       	mov    $0x0,%esi
  401908:	48 8b 3d b9 5b 00 00 	mov    0x5bb9(%rip),%rdi        # 4074c8 <optarg@GLIBC_2.2.5>
  40190f:	e8 4c fa ff ff       	call   401360 <strtol@plt>
  401914:	41 89 c5             	mov    %eax,%r13d
  401917:	eb b6                	jmp    4018cf <main+0x136>
  401919:	c7 05 7d 5b 00 00 00 	movl   $0x0,0x5b7d(%rip)        # 4074a0 <notify>
  401920:	00 00 00 
  401923:	eb aa                	jmp    4018cf <main+0x136>
  401925:	48 89 e7             	mov    %rsp,%rdi
  401928:	ba 50 00 00 00       	mov    $0x50,%edx
  40192d:	48 8b 35 94 5b 00 00 	mov    0x5b94(%rip),%rsi        # 4074c8 <optarg@GLIBC_2.2.5>
  401934:	e8 47 f9 ff ff       	call   401280 <strncpy@plt>
  401939:	eb 94                	jmp    4018cf <main+0x136>
  40193b:	89 ca                	mov    %ecx,%edx
  40193d:	48 8d 35 25 29 00 00 	lea    0x2925(%rip),%rsi        # 404269 <_IO_stdin_used+0x269>
  401944:	bf 01 00 00 00       	mov    $0x1,%edi
  401949:	b8 00 00 00 00       	mov    $0x0,%eax
  40194e:	e8 6d fa ff ff       	call   4013c0 <__printf_chk@plt>
  401953:	48 8b 3b             	mov    (%rbx),%rdi
  401956:	e8 fb fb ff ff       	call   401556 <usage>
  40195b:	be 00 00 00 00       	mov    $0x0,%esi
  401960:	44 89 ef             	mov    %r13d,%edi
  401963:	e8 8c fc ff ff       	call   4015f4 <initialize_target>
  401968:	83 3d b9 5b 00 00 00 	cmpl   $0x0,0x5bb9(%rip)        # 407528 <is_checker>
  40196f:	74 3f                	je     4019b0 <main+0x217>
  401971:	44 39 35 a8 5b 00 00 	cmp    %r14d,0x5ba8(%rip)        # 407520 <authkey>
  401978:	75 13                	jne    40198d <main+0x1f4>
  40197a:	48 89 e7             	mov    %rsp,%rdi
  40197d:	48 8b 35 dc 57 00 00 	mov    0x57dc(%rip),%rsi        # 407160 <user_id>
  401984:	e8 97 f9 ff ff       	call   401320 <strcmp@plt>
  401989:	85 c0                	test   %eax,%eax
  40198b:	74 23                	je     4019b0 <main+0x217>
  40198d:	44 89 f2             	mov    %r14d,%edx
  401990:	48 8d 35 f1 27 00 00 	lea    0x27f1(%rip),%rsi        # 404188 <_IO_stdin_used+0x188>
  401997:	bf 01 00 00 00       	mov    $0x1,%edi
  40199c:	b8 00 00 00 00       	mov    $0x0,%eax
  4019a1:	e8 1a fa ff ff       	call   4013c0 <__printf_chk@plt>
  4019a6:	b8 00 00 00 00       	mov    $0x0,%eax
  4019ab:	e8 b9 08 00 00       	call   402269 <check_fail>
  4019b0:	8b 15 6e 5b 00 00    	mov    0x5b6e(%rip),%edx        # 407524 <cookie>
  4019b6:	48 8d 35 bf 28 00 00 	lea    0x28bf(%rip),%rsi        # 40427c <_IO_stdin_used+0x27c>
  4019bd:	bf 01 00 00 00       	mov    $0x1,%edi
  4019c2:	b8 00 00 00 00       	mov    $0x0,%eax
  4019c7:	e8 f4 f9 ff ff       	call   4013c0 <__printf_chk@plt>
  4019cc:	be 00 00 00 00       	mov    $0x0,%esi
  4019d1:	48 8b 3d d0 5a 00 00 	mov    0x5ad0(%rip),%rdi        # 4074a8 <buf_offset>
  4019d8:	e8 0a 0f 00 00       	call   4028e7 <stable_launch>
  4019dd:	b8 00 00 00 00       	mov    $0x0,%eax
  4019e2:	48 8b 4c 24 58       	mov    0x58(%rsp),%rcx
  4019e7:	64 48 33 0c 25 28 00 	xor    %fs:0x28,%rcx
  4019ee:	00 00 
  4019f0:	75 0d                	jne    4019ff <main+0x266>
  4019f2:	48 83 c4 60          	add    $0x60,%rsp
  4019f6:	5b                   	pop    %rbx
  4019f7:	5d                   	pop    %rbp
  4019f8:	41 5c                	pop    %r12
  4019fa:	41 5d                	pop    %r13
  4019fc:	41 5e                	pop    %r14
  4019fe:	c3                   	ret    
  4019ff:	e8 87 0d 00 00       	call   40278b <__stack_chk_fail>

0000000000401a04 <scramble>:
  401a04:	f3 0f 1e fa          	endbr64 
  401a08:	48 83 ec 38          	sub    $0x38,%rsp
  401a0c:	64 48 8b 04 25 28 00 	mov    %fs:0x28,%rax
  401a13:	00 00 
  401a15:	48 89 44 24 28       	mov    %rax,0x28(%rsp)
  401a1a:	31 c0                	xor    %eax,%eax
  401a1c:	83 f8 09             	cmp    $0x9,%eax
  401a1f:	77 12                	ja     401a33 <scramble+0x2f>
  401a21:	69 d0 10 22 00 00    	imul   $0x2210,%eax,%edx
  401a27:	01 fa                	add    %edi,%edx
  401a29:	89 c1                	mov    %eax,%ecx
  401a2b:	89 14 8c             	mov    %edx,(%rsp,%rcx,4)
  401a2e:	83 c0 01             	add    $0x1,%eax
  401a31:	eb e9                	jmp    401a1c <scramble+0x18>
  401a33:	8b 44 24 20          	mov    0x20(%rsp),%eax
  401a37:	69 c0 55 67 00 00    	imul   $0x6755,%eax,%eax
  401a3d:	89 44 24 20          	mov    %eax,0x20(%rsp)
  401a41:	8b 04 24             	mov    (%rsp),%eax
  401a44:	69 c0 4b 30 00 00    	imul   $0x304b,%eax,%eax
  401a4a:	89 04 24             	mov    %eax,(%rsp)
  401a4d:	8b 44 24 08          	mov    0x8(%rsp),%eax
  401a51:	69 c0 df 7f 00 00    	imul   $0x7fdf,%eax,%eax
  401a57:	89 44 24 08          	mov    %eax,0x8(%rsp)
  401a5b:	8b 44 24 24          	mov    0x24(%rsp),%eax
  401a5f:	69 c0 7a dc 00 00    	imul   $0xdc7a,%eax,%eax
  401a65:	89 44 24 24          	mov    %eax,0x24(%rsp)
  401a69:	8b 04 24             	mov    (%rsp),%eax
  401a6c:	69 c0 02 96 00 00    	imul   $0x9602,%eax,%eax
  401a72:	89 04 24             	mov    %eax,(%rsp)
  401a75:	8b 04 24             	mov    (%rsp),%eax
  401a78:	69 c0 e8 69 00 00    	imul   $0x69e8,%eax,%eax
  401a7e:	89 04 24             	mov    %eax,(%rsp)
  401a81:	8b 04 24             	mov    (%rsp),%eax
  401a84:	69 c0 73 a5 00 00    	imul   $0xa573,%eax,%eax
  401a8a:	89 04 24             	mov    %eax,(%rsp)
  401a8d:	8b 44 24 08          	mov    0x8(%rsp),%eax
  401a91:	69 c0 d3 30 00 00    	imul   $0x30d3,%eax,%eax
  401a97:	89 44 24 08          	mov    %eax,0x8(%rsp)
  401a9b:	8b 44 24 20          	mov    0x20(%rsp),%eax
  401a9f:	69 c0 21 62 00 00    	imul   $0x6221,%eax,%eax
  401aa5:	89 44 24 20          	mov    %eax,0x20(%rsp)
  401aa9:	8b 44 24 10          	mov    0x10(%rsp),%eax
  401aad:	69 c0 3f 8d 00 00    	imul   $0x8d3f,%eax,%eax
  401ab3:	89 44 24 10          	mov    %eax,0x10(%rsp)
  401ab7:	8b 44 24 0c          	mov    0xc(%rsp),%eax
  401abb:	69 c0 41 5c 00 00    	imul   $0x5c41,%eax,%eax
  401ac1:	89 44 24 0c          	mov    %eax,0xc(%rsp)
  401ac5:	8b 44 24 18          	mov    0x18(%rsp),%eax
  401ac9:	69 c0 a8 41 00 00    	imul   $0x41a8,%eax,%eax
  401acf:	89 44 24 18          	mov    %eax,0x18(%rsp)
  401ad3:	8b 44 24 0c          	mov    0xc(%rsp),%eax
  401ad7:	69 c0 b3 b0 00 00    	imul   $0xb0b3,%eax,%eax
  401add:	89 44 24 0c          	mov    %eax,0xc(%rsp)
  401ae1:	8b 44 24 14          	mov    0x14(%rsp),%eax
  401ae5:	69 c0 33 c9 00 00    	imul   $0xc933,%eax,%eax
  401aeb:	89 44 24 14          	mov    %eax,0x14(%rsp)
  401aef:	8b 44 24 20          	mov    0x20(%rsp),%eax
  401af3:	69 c0 89 6f 00 00    	imul   $0x6f89,%eax,%eax
  401af9:	89 44 24 20          	mov    %eax,0x20(%rsp)
  401afd:	8b 44 24 18          	mov    0x18(%rsp),%eax
  401b01:	69 c0 33 72 00 00    	imul   $0x7233,%eax,%eax
  401b07:	89 44 24 18          	mov    %eax,0x18(%rsp)
  401b0b:	8b 44 24 20          	mov    0x20(%rsp),%eax
  401b0f:	69 c0 ed 9b 00 00    	imul   $0x9bed,%eax,%eax
  401b15:	89 44 24 20          	mov    %eax,0x20(%rsp)
  401b19:	8b 44 24 08          	mov    0x8(%rsp),%eax
  401b1d:	69 c0 98 f1 00 00    	imul   $0xf198,%eax,%eax
  401b23:	89 44 24 08          	mov    %eax,0x8(%rsp)
  401b27:	8b 44 24 08          	mov    0x8(%rsp),%eax
  401b2b:	69 c0 4a 47 00 00    	imul   $0x474a,%eax,%eax
  401b31:	89 44 24 08          	mov    %eax,0x8(%rsp)
  401b35:	8b 44 24 08          	mov    0x8(%rsp),%eax
  401b39:	69 c0 ff e0 00 00    	imul   $0xe0ff,%eax,%eax
  401b3f:	89 44 24 08          	mov    %eax,0x8(%rsp)
  401b43:	8b 04 24             	mov    (%rsp),%eax
  401b46:	69 c0 e5 67 00 00    	imul   $0x67e5,%eax,%eax
  401b4c:	89 04 24             	mov    %eax,(%rsp)
  401b4f:	8b 04 24             	mov    (%rsp),%eax
  401b52:	69 c0 d8 eb 00 00    	imul   $0xebd8,%eax,%eax
  401b58:	89 04 24             	mov    %eax,(%rsp)
  401b5b:	8b 44 24 1c          	mov    0x1c(%rsp),%eax
  401b5f:	69 c0 24 80 00 00    	imul   $0x8024,%eax,%eax
  401b65:	89 44 24 1c          	mov    %eax,0x1c(%rsp)
  401b69:	8b 44 24 14          	mov    0x14(%rsp),%eax
  401b6d:	69 c0 34 ea 00 00    	imul   $0xea34,%eax,%eax
  401b73:	89 44 24 14          	mov    %eax,0x14(%rsp)
  401b77:	8b 04 24             	mov    (%rsp),%eax
  401b7a:	69 c0 d9 79 00 00    	imul   $0x79d9,%eax,%eax
  401b80:	89 04 24             	mov    %eax,(%rsp)
  401b83:	8b 44 24 1c          	mov    0x1c(%rsp),%eax
  401b87:	69 c0 25 87 00 00    	imul   $0x8725,%eax,%eax
  401b8d:	89 44 24 1c          	mov    %eax,0x1c(%rsp)
  401b91:	8b 44 24 14          	mov    0x14(%rsp),%eax
  401b95:	69 c0 b5 2e 00 00    	imul   $0x2eb5,%eax,%eax
  401b9b:	89 44 24 14          	mov    %eax,0x14(%rsp)
  401b9f:	8b 44 24 10          	mov    0x10(%rsp),%eax
  401ba3:	69 c0 8f c3 00 00    	imul   $0xc38f,%eax,%eax
  401ba9:	89 44 24 10          	mov    %eax,0x10(%rsp)
  401bad:	8b 44 24 0c          	mov    0xc(%rsp),%eax
  401bb1:	69 c0 e7 2e 00 00    	imul   $0x2ee7,%eax,%eax
  401bb7:	89 44 24 0c          	mov    %eax,0xc(%rsp)
  401bbb:	8b 44 24 08          	mov    0x8(%rsp),%eax
  401bbf:	69 c0 8b 2f 00 00    	imul   $0x2f8b,%eax,%eax
  401bc5:	89 44 24 08          	mov    %eax,0x8(%rsp)
  401bc9:	8b 44 24 08          	mov    0x8(%rsp),%eax
  401bcd:	69 c0 61 34 00 00    	imul   $0x3461,%eax,%eax
  401bd3:	89 44 24 08          	mov    %eax,0x8(%rsp)
  401bd7:	8b 04 24             	mov    (%rsp),%eax
  401bda:	69 c0 4f 75 00 00    	imul   $0x754f,%eax,%eax
  401be0:	89 04 24             	mov    %eax,(%rsp)
  401be3:	8b 44 24 1c          	mov    0x1c(%rsp),%eax
  401be7:	69 c0 3c 44 00 00    	imul   $0x443c,%eax,%eax
  401bed:	89 44 24 1c          	mov    %eax,0x1c(%rsp)
  401bf1:	8b 44 24 10          	mov    0x10(%rsp),%eax
  401bf5:	69 c0 1a ec 00 00    	imul   $0xec1a,%eax,%eax
  401bfb:	89 44 24 10          	mov    %eax,0x10(%rsp)
  401bff:	8b 44 24 18          	mov    0x18(%rsp),%eax
  401c03:	69 c0 fa 34 00 00    	imul   $0x34fa,%eax,%eax
  401c09:	89 44 24 18          	mov    %eax,0x18(%rsp)
  401c0d:	8b 44 24 1c          	mov    0x1c(%rsp),%eax
  401c11:	69 c0 d3 68 00 00    	imul   $0x68d3,%eax,%eax
  401c17:	89 44 24 1c          	mov    %eax,0x1c(%rsp)
  401c1b:	8b 44 24 04          	mov    0x4(%rsp),%eax
  401c1f:	69 c0 02 18 00 00    	imul   $0x1802,%eax,%eax
  401c25:	89 44 24 04          	mov    %eax,0x4(%rsp)
  401c29:	8b 44 24 20          	mov    0x20(%rsp),%eax
  401c2d:	69 c0 37 aa 00 00    	imul   $0xaa37,%eax,%eax
  401c33:	89 44 24 20          	mov    %eax,0x20(%rsp)
  401c37:	8b 44 24 0c          	mov    0xc(%rsp),%eax
  401c3b:	69 c0 57 71 00 00    	imul   $0x7157,%eax,%eax
  401c41:	89 44 24 0c          	mov    %eax,0xc(%rsp)
  401c45:	8b 44 24 20          	mov    0x20(%rsp),%eax
  401c49:	69 c0 6c 7a 00 00    	imul   $0x7a6c,%eax,%eax
  401c4f:	89 44 24 20          	mov    %eax,0x20(%rsp)
  401c53:	8b 44 24 1c          	mov    0x1c(%rsp),%eax
  401c57:	69 c0 df 0b 00 00    	imul   $0xbdf,%eax,%eax
  401c5d:	89 44 24 1c          	mov    %eax,0x1c(%rsp)
  401c61:	8b 04 24             	mov    (%rsp),%eax
  401c64:	69 c0 4b c1 00 00    	imul   $0xc14b,%eax,%eax
  401c6a:	89 04 24             	mov    %eax,(%rsp)
  401c6d:	8b 44 24 0c          	mov    0xc(%rsp),%eax
  401c71:	69 c0 5f ca 00 00    	imul   $0xca5f,%eax,%eax
  401c77:	89 44 24 0c          	mov    %eax,0xc(%rsp)
  401c7b:	8b 44 24 20          	mov    0x20(%rsp),%eax
  401c7f:	69 c0 fd 19 00 00    	imul   $0x19fd,%eax,%eax
  401c85:	89 44 24 20          	mov    %eax,0x20(%rsp)
  401c89:	8b 04 24             	mov    (%rsp),%eax
  401c8c:	69 c0 9e 11 00 00    	imul   $0x119e,%eax,%eax
  401c92:	89 04 24             	mov    %eax,(%rsp)
  401c95:	8b 44 24 1c          	mov    0x1c(%rsp),%eax
  401c99:	69 c0 b6 97 00 00    	imul   $0x97b6,%eax,%eax
  401c9f:	89 44 24 1c          	mov    %eax,0x1c(%rsp)
  401ca3:	8b 44 24 04          	mov    0x4(%rsp),%eax
  401ca7:	69 c0 47 eb 00 00    	imul   $0xeb47,%eax,%eax
  401cad:	89 44 24 04          	mov    %eax,0x4(%rsp)
  401cb1:	8b 44 24 14          	mov    0x14(%rsp),%eax
  401cb5:	69 c0 4e 16 00 00    	imul   $0x164e,%eax,%eax
  401cbb:	89 44 24 14          	mov    %eax,0x14(%rsp)
  401cbf:	8b 44 24 08          	mov    0x8(%rsp),%eax
  401cc3:	69 c0 ed 73 00 00    	imul   $0x73ed,%eax,%eax
  401cc9:	89 44 24 08          	mov    %eax,0x8(%rsp)
  401ccd:	8b 44 24 04          	mov    0x4(%rsp),%eax
  401cd1:	69 c0 0a bb 00 00    	imul   $0xbb0a,%eax,%eax
  401cd7:	89 44 24 04          	mov    %eax,0x4(%rsp)
  401cdb:	8b 44 24 04          	mov    0x4(%rsp),%eax
  401cdf:	69 c0 82 cf 00 00    	imul   $0xcf82,%eax,%eax
  401ce5:	89 44 24 04          	mov    %eax,0x4(%rsp)
  401ce9:	8b 44 24 18          	mov    0x18(%rsp),%eax
  401ced:	69 c0 c6 45 00 00    	imul   $0x45c6,%eax,%eax
  401cf3:	89 44 24 18          	mov    %eax,0x18(%rsp)
  401cf7:	8b 44 24 04          	mov    0x4(%rsp),%eax
  401cfb:	69 c0 88 78 00 00    	imul   $0x7888,%eax,%eax
  401d01:	89 44 24 04          	mov    %eax,0x4(%rsp)
  401d05:	8b 44 24 14          	mov    0x14(%rsp),%eax
  401d09:	69 c0 ab 7f 00 00    	imul   $0x7fab,%eax,%eax
  401d0f:	89 44 24 14          	mov    %eax,0x14(%rsp)
  401d13:	8b 44 24 0c          	mov    0xc(%rsp),%eax
  401d17:	69 c0 68 84 00 00    	imul   $0x8468,%eax,%eax
  401d1d:	89 44 24 0c          	mov    %eax,0xc(%rsp)
  401d21:	8b 44 24 08          	mov    0x8(%rsp),%eax
  401d25:	69 c0 10 d5 00 00    	imul   $0xd510,%eax,%eax
  401d2b:	89 44 24 08          	mov    %eax,0x8(%rsp)
  401d2f:	8b 44 24 04          	mov    0x4(%rsp),%eax
  401d33:	69 c0 a8 fb 00 00    	imul   $0xfba8,%eax,%eax
  401d39:	89 44 24 04          	mov    %eax,0x4(%rsp)
  401d3d:	8b 44 24 1c          	mov    0x1c(%rsp),%eax
  401d41:	69 c0 dc ca 00 00    	imul   $0xcadc,%eax,%eax
  401d47:	89 44 24 1c          	mov    %eax,0x1c(%rsp)
  401d4b:	8b 44 24 0c          	mov    0xc(%rsp),%eax
  401d4f:	69 c0 36 1b 00 00    	imul   $0x1b36,%eax,%eax
  401d55:	89 44 24 0c          	mov    %eax,0xc(%rsp)
  401d59:	8b 04 24             	mov    (%rsp),%eax
  401d5c:	69 c0 4d bf 00 00    	imul   $0xbf4d,%eax,%eax
  401d62:	89 04 24             	mov    %eax,(%rsp)
  401d65:	8b 44 24 20          	mov    0x20(%rsp),%eax
  401d69:	69 c0 62 2e 00 00    	imul   $0x2e62,%eax,%eax
  401d6f:	89 44 24 20          	mov    %eax,0x20(%rsp)
  401d73:	8b 44 24 24          	mov    0x24(%rsp),%eax
  401d77:	69 c0 d4 72 00 00    	imul   $0x72d4,%eax,%eax
  401d7d:	89 44 24 24          	mov    %eax,0x24(%rsp)
  401d81:	8b 04 24             	mov    (%rsp),%eax
  401d84:	69 c0 09 64 00 00    	imul   $0x6409,%eax,%eax
  401d8a:	89 04 24             	mov    %eax,(%rsp)
  401d8d:	8b 04 24             	mov    (%rsp),%eax
  401d90:	69 c0 2c 49 00 00    	imul   $0x492c,%eax,%eax
  401d96:	89 04 24             	mov    %eax,(%rsp)
  401d99:	8b 44 24 20          	mov    0x20(%rsp),%eax
  401d9d:	69 c0 8a 8b 00 00    	imul   $0x8b8a,%eax,%eax
  401da3:	89 44 24 20          	mov    %eax,0x20(%rsp)
  401da7:	8b 44 24 0c          	mov    0xc(%rsp),%eax
  401dab:	69 c0 dd 80 00 00    	imul   $0x80dd,%eax,%eax
  401db1:	89 44 24 0c          	mov    %eax,0xc(%rsp)
  401db5:	8b 44 24 0c          	mov    0xc(%rsp),%eax
  401db9:	69 c0 13 28 00 00    	imul   $0x2813,%eax,%eax
  401dbf:	89 44 24 0c          	mov    %eax,0xc(%rsp)
  401dc3:	8b 44 24 10          	mov    0x10(%rsp),%eax
  401dc7:	69 c0 91 42 00 00    	imul   $0x4291,%eax,%eax
  401dcd:	89 44 24 10          	mov    %eax,0x10(%rsp)
  401dd1:	8b 44 24 20          	mov    0x20(%rsp),%eax
  401dd5:	69 c0 a0 b6 00 00    	imul   $0xb6a0,%eax,%eax
  401ddb:	89 44 24 20          	mov    %eax,0x20(%rsp)
  401ddf:	8b 44 24 0c          	mov    0xc(%rsp),%eax
  401de3:	69 c0 7b 8a 00 00    	imul   $0x8a7b,%eax,%eax
  401de9:	89 44 24 0c          	mov    %eax,0xc(%rsp)
  401ded:	8b 44 24 14          	mov    0x14(%rsp),%eax
  401df1:	69 c0 53 bc 00 00    	imul   $0xbc53,%eax,%eax
  401df7:	89 44 24 14          	mov    %eax,0x14(%rsp)
  401dfb:	8b 44 24 18          	mov    0x18(%rsp),%eax
  401dff:	69 c0 51 cb 00 00    	imul   $0xcb51,%eax,%eax
  401e05:	89 44 24 18          	mov    %eax,0x18(%rsp)
  401e09:	8b 44 24 04          	mov    0x4(%rsp),%eax
  401e0d:	69 c0 e7 f5 00 00    	imul   $0xf5e7,%eax,%eax
  401e13:	89 44 24 04          	mov    %eax,0x4(%rsp)
  401e17:	8b 44 24 04          	mov    0x4(%rsp),%eax
  401e1b:	69 c0 03 7e 00 00    	imul   $0x7e03,%eax,%eax
  401e21:	89 44 24 04          	mov    %eax,0x4(%rsp)
  401e25:	8b 44 24 04          	mov    0x4(%rsp),%eax
  401e29:	69 c0 07 7b 00 00    	imul   $0x7b07,%eax,%eax
  401e2f:	89 44 24 04          	mov    %eax,0x4(%rsp)
  401e33:	8b 44 24 04          	mov    0x4(%rsp),%eax
  401e37:	69 c0 f2 3d 00 00    	imul   $0x3df2,%eax,%eax
  401e3d:	89 44 24 04          	mov    %eax,0x4(%rsp)
  401e41:	8b 44 24 10          	mov    0x10(%rsp),%eax
  401e45:	69 c0 55 94 00 00    	imul   $0x9455,%eax,%eax
  401e4b:	89 44 24 10          	mov    %eax,0x10(%rsp)
  401e4f:	8b 04 24             	mov    (%rsp),%eax
  401e52:	69 c0 12 c3 00 00    	imul   $0xc312,%eax,%eax
  401e58:	89 04 24             	mov    %eax,(%rsp)
  401e5b:	8b 44 24 18          	mov    0x18(%rsp),%eax
  401e5f:	69 c0 e8 39 00 00    	imul   $0x39e8,%eax,%eax
  401e65:	89 44 24 18          	mov    %eax,0x18(%rsp)
  401e69:	8b 44 24 20          	mov    0x20(%rsp),%eax
  401e6d:	69 c0 55 d0 00 00    	imul   $0xd055,%eax,%eax
  401e73:	89 44 24 20          	mov    %eax,0x20(%rsp)
  401e77:	8b 44 24 18          	mov    0x18(%rsp),%eax
  401e7b:	69 c0 75 10 00 00    	imul   $0x1075,%eax,%eax
  401e81:	89 44 24 18          	mov    %eax,0x18(%rsp)
  401e85:	8b 44 24 18          	mov    0x18(%rsp),%eax
  401e89:	69 c0 7f 20 00 00    	imul   $0x207f,%eax,%eax
  401e8f:	89 44 24 18          	mov    %eax,0x18(%rsp)
  401e93:	b8 00 00 00 00       	mov    $0x0,%eax
  401e98:	ba 00 00 00 00       	mov    $0x0,%edx
  401e9d:	83 f8 09             	cmp    $0x9,%eax
  401ea0:	77 0c                	ja     401eae <scramble+0x4aa>
  401ea2:	89 c1                	mov    %eax,%ecx
  401ea4:	8b 0c 8c             	mov    (%rsp,%rcx,4),%ecx
  401ea7:	01 ca                	add    %ecx,%edx
  401ea9:	83 c0 01             	add    $0x1,%eax
  401eac:	eb ef                	jmp    401e9d <scramble+0x499>
  401eae:	48 8b 44 24 28       	mov    0x28(%rsp),%rax
  401eb3:	64 48 33 04 25 28 00 	xor    %fs:0x28,%rax
  401eba:	00 00 
  401ebc:	75 07                	jne    401ec5 <scramble+0x4c1>
  401ebe:	89 d0                	mov    %edx,%eax
  401ec0:	48 83 c4 38          	add    $0x38,%rsp
  401ec4:	c3                   	ret    
  401ec5:	e8 c1 08 00 00       	call   40278b <__stack_chk_fail>

0000000000401eca <getbuf>:
  401eca:	f3 0f 1e fa          	endbr64 
  401ece:	48 83 ec 38          	sub    $0x38,%rsp
  401ed2:	48 89 e7             	mov    %rsp,%rdi
  401ed5:	e8 cd 03 00 00       	call   4022a7 <Gets>
  401eda:	b8 01 00 00 00       	mov    $0x1,%eax
  401edf:	48 83 c4 38          	add    $0x38,%rsp
  401ee3:	c3                   	ret    

0000000000401ee4 <getbuf_withcanary>:
  401ee4:	f3 0f 1e fa          	endbr64 
  401ee8:	55                   	push   %rbp
  401ee9:	48 89 e5             	mov    %rsp,%rbp
  401eec:	48 81 ec 90 01 00 00 	sub    $0x190,%rsp
  401ef3:	64 48 8b 04 25 28 00 	mov    %fs:0x28,%rax
  401efa:	00 00 
  401efc:	48 89 45 f8          	mov    %rax,-0x8(%rbp)
  401f00:	31 c0                	xor    %eax,%eax
  401f02:	c7 85 74 ff ff ff 00 	movl   $0x0,-0x8c(%rbp)
  401f09:	00 00 00 
  401f0c:	8b 85 74 ff ff ff    	mov    -0x8c(%rbp),%eax
  401f12:	89 85 70 ff ff ff    	mov    %eax,-0x90(%rbp)
  401f18:	48 8d 85 70 fe ff ff 	lea    -0x190(%rbp),%rax
  401f1f:	48 89 c7             	mov    %rax,%rdi
  401f22:	e8 80 03 00 00       	call   4022a7 <Gets>
  401f27:	8b 85 70 ff ff ff    	mov    -0x90(%rbp),%eax
  401f2d:	48 63 d0             	movslq %eax,%rdx
  401f30:	48 8d 85 70 fe ff ff 	lea    -0x190(%rbp),%rax
  401f37:	48 8d 88 08 01 00 00 	lea    0x108(%rax),%rcx
  401f3e:	48 8d 85 70 fe ff ff 	lea    -0x190(%rbp),%rax
  401f45:	48 89 ce             	mov    %rcx,%rsi
  401f48:	48 89 c7             	mov    %rax,%rdi
  401f4b:	e8 20 f4 ff ff       	call   401370 <memcpy@plt>
  401f50:	8b 85 74 ff ff ff    	mov    -0x8c(%rbp),%eax
  401f56:	48 63 d0             	movslq %eax,%rdx
  401f59:	48 8d 85 70 fe ff ff 	lea    -0x190(%rbp),%rax
  401f60:	48 8d 8d 70 fe ff ff 	lea    -0x190(%rbp),%rcx
  401f67:	48 81 c1 08 01 00 00 	add    $0x108,%rcx
  401f6e:	48 89 c6             	mov    %rax,%rsi
  401f71:	48 89 cf             	mov    %rcx,%rdi
  401f74:	e8 f7 f3 ff ff       	call   401370 <memcpy@plt>
  401f79:	b8 01 00 00 00       	mov    $0x1,%eax
  401f7e:	48 8b 55 f8          	mov    -0x8(%rbp),%rdx
  401f82:	64 48 2b 14 25 28 00 	sub    %fs:0x28,%rdx
  401f89:	00 00 
  401f8b:	74 05                	je     401f92 <getbuf_withcanary+0xae>
  401f8d:	e8 f9 07 00 00       	call   40278b <__stack_chk_fail>
  401f92:	c9                   	leave  
  401f93:	c3                   	ret    

0000000000401f94 <touch1>:
  401f94:	f3 0f 1e fa          	endbr64 
  401f98:	50                   	push   %rax
  401f99:	58                   	pop    %rax
  401f9a:	48 83 ec 08          	sub    $0x8,%rsp
  401f9e:	c7 05 74 55 00 00 01 	movl   $0x1,0x5574(%rip)        # 40751c <vlevel>
  401fa5:	00 00 00 
  401fa8:	48 8d 3d 67 23 00 00 	lea    0x2367(%rip),%rdi        # 404316 <_IO_stdin_used+0x316>
  401faf:	e8 fc f2 ff ff       	call   4012b0 <puts@plt>
  401fb4:	bf 01 00 00 00       	mov    $0x1,%edi
  401fb9:	e8 5b 05 00 00       	call   402519 <validate>
  401fbe:	bf 00 00 00 00       	mov    $0x0,%edi
  401fc3:	e8 48 f4 ff ff       	call   401410 <exit@plt>

0000000000401fc8 <touch2>:
  401fc8:	f3 0f 1e fa          	endbr64 
  401fcc:	50                   	push   %rax
  401fcd:	58                   	pop    %rax
  401fce:	48 83 ec 08          	sub    $0x8,%rsp
  401fd2:	89 fa                	mov    %edi,%edx
  401fd4:	c7 05 3e 55 00 00 02 	movl   $0x2,0x553e(%rip)        # 40751c <vlevel>
  401fdb:	00 00 00 
  401fde:	39 3d 40 55 00 00    	cmp    %edi,0x5540(%rip)        # 407524 <cookie>
  401fe4:	74 2a                	je     402010 <touch2+0x48>
  401fe6:	48 8d 35 73 23 00 00 	lea    0x2373(%rip),%rsi        # 404360 <_IO_stdin_used+0x360>
  401fed:	bf 01 00 00 00       	mov    $0x1,%edi
  401ff2:	b8 00 00 00 00       	mov    $0x0,%eax
  401ff7:	e8 c4 f3 ff ff       	call   4013c0 <__printf_chk@plt>
  401ffc:	bf 02 00 00 00       	mov    $0x2,%edi
  402001:	e8 ee 05 00 00       	call   4025f4 <fail>
  402006:	bf 00 00 00 00       	mov    $0x0,%edi
  40200b:	e8 00 f4 ff ff       	call   401410 <exit@plt>
  402010:	48 8d 35 21 23 00 00 	lea    0x2321(%rip),%rsi        # 404338 <_IO_stdin_used+0x338>
  402017:	bf 01 00 00 00       	mov    $0x1,%edi
  40201c:	b8 00 00 00 00       	mov    $0x0,%eax
  402021:	e8 9a f3 ff ff       	call   4013c0 <__printf_chk@plt>
  402026:	bf 02 00 00 00       	mov    $0x2,%edi
  40202b:	e8 e9 04 00 00       	call   402519 <validate>
  402030:	eb d4                	jmp    402006 <touch2+0x3e>

0000000000402032 <hexmatch>:
  402032:	f3 0f 1e fa          	endbr64 
  402036:	41 55                	push   %r13
  402038:	41 54                	push   %r12
  40203a:	55                   	push   %rbp
  40203b:	53                   	push   %rbx
  40203c:	48 81 ec 88 00 00 00 	sub    $0x88,%rsp
  402043:	89 fd                	mov    %edi,%ebp
  402045:	48 89 f3             	mov    %rsi,%rbx
  402048:	41 bc 28 00 00 00    	mov    $0x28,%r12d
  40204e:	64 49 8b 04 24       	mov    %fs:(%r12),%rax
  402053:	48 89 44 24 78       	mov    %rax,0x78(%rsp)
  402058:	31 c0                	xor    %eax,%eax
  40205a:	e8 31 f3 ff ff       	call   401390 <random@plt>
  40205f:	48 89 c1             	mov    %rax,%rcx
  402062:	48 ba 0b d7 a3 70 3d 	movabs $0xa3d70a3d70a3d70b,%rdx
  402069:	0a d7 a3 
  40206c:	48 f7 ea             	imul   %rdx
  40206f:	48 01 ca             	add    %rcx,%rdx
  402072:	48 c1 fa 06          	sar    $0x6,%rdx
  402076:	48 89 c8             	mov    %rcx,%rax
  402079:	48 c1 f8 3f          	sar    $0x3f,%rax
  40207d:	48 29 c2             	sub    %rax,%rdx
  402080:	48 8d 04 92          	lea    (%rdx,%rdx,4),%rax
  402084:	48 8d 04 80          	lea    (%rax,%rax,4),%rax
  402088:	48 c1 e0 02          	shl    $0x2,%rax
  40208c:	48 29 c1             	sub    %rax,%rcx
  40208f:	4c 8d 2c 0c          	lea    (%rsp,%rcx,1),%r13
  402093:	41 89 e8             	mov    %ebp,%r8d
  402096:	48 8d 0d 96 22 00 00 	lea    0x2296(%rip),%rcx        # 404333 <_IO_stdin_used+0x333>
  40209d:	48 c7 c2 ff ff ff ff 	mov    $0xffffffffffffffff,%rdx
  4020a4:	be 01 00 00 00       	mov    $0x1,%esi
  4020a9:	4c 89 ef             	mov    %r13,%rdi
  4020ac:	b8 00 00 00 00       	mov    $0x0,%eax
  4020b1:	e8 9a f3 ff ff       	call   401450 <__sprintf_chk@plt>
  4020b6:	ba 09 00 00 00       	mov    $0x9,%edx
  4020bb:	4c 89 ee             	mov    %r13,%rsi
  4020be:	48 89 df             	mov    %rbx,%rdi
  4020c1:	e8 ca f1 ff ff       	call   401290 <strncmp@plt>
  4020c6:	85 c0                	test   %eax,%eax
  4020c8:	0f 94 c0             	sete   %al
  4020cb:	48 8b 5c 24 78       	mov    0x78(%rsp),%rbx
  4020d0:	64 49 33 1c 24       	xor    %fs:(%r12),%rbx
  4020d5:	75 11                	jne    4020e8 <hexmatch+0xb6>
  4020d7:	0f b6 c0             	movzbl %al,%eax
  4020da:	48 81 c4 88 00 00 00 	add    $0x88,%rsp
  4020e1:	5b                   	pop    %rbx
  4020e2:	5d                   	pop    %rbp
  4020e3:	41 5c                	pop    %r12
  4020e5:	41 5d                	pop    %r13
  4020e7:	c3                   	ret    
  4020e8:	e8 9e 06 00 00       	call   40278b <__stack_chk_fail>

00000000004020ed <touch3>:
  4020ed:	f3 0f 1e fa          	endbr64 
  4020f1:	53                   	push   %rbx
  4020f2:	48 89 fb             	mov    %rdi,%rbx
  4020f5:	c7 05 1d 54 00 00 03 	movl   $0x3,0x541d(%rip)        # 40751c <vlevel>
  4020fc:	00 00 00 
  4020ff:	48 89 fe             	mov    %rdi,%rsi
  402102:	8b 3d 1c 54 00 00    	mov    0x541c(%rip),%edi        # 407524 <cookie>
  402108:	e8 25 ff ff ff       	call   402032 <hexmatch>
  40210d:	85 c0                	test   %eax,%eax
  40210f:	74 2d                	je     40213e <touch3+0x51>
  402111:	48 89 da             	mov    %rbx,%rdx
  402114:	48 8d 35 6d 22 00 00 	lea    0x226d(%rip),%rsi        # 404388 <_IO_stdin_used+0x388>
  40211b:	bf 01 00 00 00       	mov    $0x1,%edi
  402120:	b8 00 00 00 00       	mov    $0x0,%eax
  402125:	e8 96 f2 ff ff       	call   4013c0 <__printf_chk@plt>
  40212a:	bf 03 00 00 00       	mov    $0x3,%edi
  40212f:	e8 e5 03 00 00       	call   402519 <validate>
  402134:	bf 00 00 00 00       	mov    $0x0,%edi
  402139:	e8 d2 f2 ff ff       	call   401410 <exit@plt>
  40213e:	48 89 da             	mov    %rbx,%rdx
  402141:	48 8d 35 68 22 00 00 	lea    0x2268(%rip),%rsi        # 4043b0 <_IO_stdin_used+0x3b0>
  402148:	bf 01 00 00 00       	mov    $0x1,%edi
  40214d:	b8 00 00 00 00       	mov    $0x0,%eax
  402152:	e8 69 f2 ff ff       	call   4013c0 <__printf_chk@plt>
  402157:	bf 03 00 00 00       	mov    $0x3,%edi
  40215c:	e8 93 04 00 00       	call   4025f4 <fail>
  402161:	eb d1                	jmp    402134 <touch3+0x47>

0000000000402163 <test>:
  402163:	f3 0f 1e fa          	endbr64 
  402167:	48 83 ec 08          	sub    $0x8,%rsp
  40216b:	b8 00 00 00 00       	mov    $0x0,%eax
  402170:	e8 55 fd ff ff       	call   401eca <getbuf>
  402175:	89 c2                	mov    %eax,%edx
  402177:	48 89 e0             	mov    %rsp,%rax
  40217a:	48 83 e0 0f          	and    $0xf,%rax
  40217e:	74 07                	je     402187 <aligned4>
  402180:	b9 00 00 00 00       	mov    $0x0,%ecx
  402185:	eb 05                	jmp    40218c <done4>

0000000000402187 <aligned4>:
  402187:	b9 01 00 00 00       	mov    $0x1,%ecx

000000000040218c <done4>:
  40218c:	85 c9                	test   %ecx,%ecx
  40218e:	75 23                	jne    4021b3 <done4+0x27>
  402190:	48 83 ec 08          	sub    $0x8,%rsp
  402194:	48 8d 35 3d 22 00 00 	lea    0x223d(%rip),%rsi        # 4043d8 <_IO_stdin_used+0x3d8>
  40219b:	bf 01 00 00 00       	mov    $0x1,%edi
  4021a0:	b8 00 00 00 00       	mov    $0x0,%eax
  4021a5:	e8 16 f2 ff ff       	call   4013c0 <__printf_chk@plt>
  4021aa:	48 83 c4 08          	add    $0x8,%rsp
  4021ae:	48 83 c4 08          	add    $0x8,%rsp
  4021b2:	c3                   	ret    
  4021b3:	48 8d 35 1e 22 00 00 	lea    0x221e(%rip),%rsi        # 4043d8 <_IO_stdin_used+0x3d8>
  4021ba:	bf 01 00 00 00       	mov    $0x1,%edi
  4021bf:	b8 00 00 00 00       	mov    $0x0,%eax
  4021c4:	e8 f7 f1 ff ff       	call   4013c0 <__printf_chk@plt>
  4021c9:	eb e3                	jmp    4021ae <done4+0x22>

00000000004021cb <test2>:
  4021cb:	f3 0f 1e fa          	endbr64 
  4021cf:	48 83 ec 08          	sub    $0x8,%rsp
  4021d3:	b8 00 00 00 00       	mov    $0x0,%eax
  4021d8:	e8 07 fd ff ff       	call   401ee4 <getbuf_withcanary>
  4021dd:	89 c2                	mov    %eax,%edx
  4021df:	48 8d 35 1a 22 00 00 	lea    0x221a(%rip),%rsi        # 404400 <_IO_stdin_used+0x400>
  4021e6:	bf 01 00 00 00       	mov    $0x1,%edi
  4021eb:	b8 00 00 00 00       	mov    $0x0,%eax
  4021f0:	e8 cb f1 ff ff       	call   4013c0 <__printf_chk@plt>
  4021f5:	48 83 c4 08          	add    $0x8,%rsp
  4021f9:	c3                   	ret    

00000000004021fa <save_char>:
  4021fa:	8b 05 44 5f 00 00    	mov    0x5f44(%rip),%eax        # 408144 <gets_cnt>
  402200:	3d ff 03 00 00       	cmp    $0x3ff,%eax
  402205:	7f 4a                	jg     402251 <save_char+0x57>
  402207:	89 f9                	mov    %edi,%ecx
  402209:	c0 e9 04             	shr    $0x4,%cl
  40220c:	8d 14 40             	lea    (%rax,%rax,2),%edx
  40220f:	4c 8d 05 5a 25 00 00 	lea    0x255a(%rip),%r8        # 404770 <trans_char>
  402216:	83 e1 0f             	and    $0xf,%ecx
  402219:	45 0f b6 0c 08       	movzbl (%r8,%rcx,1),%r9d
  40221e:	48 8d 0d 1b 53 00 00 	lea    0x531b(%rip),%rcx        # 407540 <gets_buf>
  402225:	48 63 f2             	movslq %edx,%rsi
  402228:	44 88 0c 31          	mov    %r9b,(%rcx,%rsi,1)
  40222c:	8d 72 01             	lea    0x1(%rdx),%esi
  40222f:	83 e7 0f             	and    $0xf,%edi
  402232:	41 0f b6 3c 38       	movzbl (%r8,%rdi,1),%edi
  402237:	48 63 f6             	movslq %esi,%rsi
  40223a:	40 88 3c 31          	mov    %dil,(%rcx,%rsi,1)
  40223e:	83 c2 02             	add    $0x2,%edx
  402241:	48 63 d2             	movslq %edx,%rdx
  402244:	c6 04 11 20          	movb   $0x20,(%rcx,%rdx,1)
  402248:	83 c0 01             	add    $0x1,%eax
  40224b:	89 05 f3 5e 00 00    	mov    %eax,0x5ef3(%rip)        # 408144 <gets_cnt>
  402251:	c3                   	ret    

0000000000402252 <save_term>:
  402252:	8b 05 ec 5e 00 00    	mov    0x5eec(%rip),%eax        # 408144 <gets_cnt>
  402258:	8d 04 40             	lea    (%rax,%rax,2),%eax
  40225b:	48 98                	cltq   
  40225d:	48 8d 15 dc 52 00 00 	lea    0x52dc(%rip),%rdx        # 407540 <gets_buf>
  402264:	c6 04 02 00          	movb   $0x0,(%rdx,%rax,1)
  402268:	c3                   	ret    

0000000000402269 <check_fail>:
  402269:	f3 0f 1e fa          	endbr64 
  40226d:	50                   	push   %rax
  40226e:	58                   	pop    %rax
  40226f:	48 83 ec 08          	sub    $0x8,%rsp
  402273:	0f be 15 ce 5e 00 00 	movsbl 0x5ece(%rip),%edx        # 408148 <target_prefix>
  40227a:	4c 8d 05 bf 52 00 00 	lea    0x52bf(%rip),%r8        # 407540 <gets_buf>
  402281:	8b 0d 91 52 00 00    	mov    0x5291(%rip),%ecx        # 407518 <check_level>
  402287:	48 8d 35 a0 21 00 00 	lea    0x21a0(%rip),%rsi        # 40442e <_IO_stdin_used+0x42e>
  40228e:	bf 01 00 00 00       	mov    $0x1,%edi
  402293:	b8 00 00 00 00       	mov    $0x0,%eax
  402298:	e8 23 f1 ff ff       	call   4013c0 <__printf_chk@plt>
  40229d:	bf 01 00 00 00       	mov    $0x1,%edi
  4022a2:	e8 69 f1 ff ff       	call   401410 <exit@plt>

00000000004022a7 <Gets>:
  4022a7:	f3 0f 1e fa          	endbr64 
  4022ab:	41 54                	push   %r12
  4022ad:	55                   	push   %rbp
  4022ae:	53                   	push   %rbx
  4022af:	49 89 fc             	mov    %rdi,%r12
  4022b2:	c7 05 88 5e 00 00 00 	movl   $0x0,0x5e88(%rip)        # 408144 <gets_cnt>
  4022b9:	00 00 00 
  4022bc:	48 89 fb             	mov    %rdi,%rbx
  4022bf:	48 8b 3d 4a 52 00 00 	mov    0x524a(%rip),%rdi        # 407510 <infile>
  4022c6:	e8 75 f1 ff ff       	call   401440 <getc@plt>
  4022cb:	83 f8 ff             	cmp    $0xffffffff,%eax
  4022ce:	74 18                	je     4022e8 <Gets+0x41>
  4022d0:	83 f8 0a             	cmp    $0xa,%eax
  4022d3:	74 13                	je     4022e8 <Gets+0x41>
  4022d5:	48 8d 6b 01          	lea    0x1(%rbx),%rbp
  4022d9:	88 03                	mov    %al,(%rbx)
  4022db:	0f b6 f8             	movzbl %al,%edi
  4022de:	e8 17 ff ff ff       	call   4021fa <save_char>
  4022e3:	48 89 eb             	mov    %rbp,%rbx
  4022e6:	eb d7                	jmp    4022bf <Gets+0x18>
  4022e8:	c6 03 00             	movb   $0x0,(%rbx)
  4022eb:	b8 00 00 00 00       	mov    $0x0,%eax
  4022f0:	e8 5d ff ff ff       	call   402252 <save_term>
  4022f5:	4c 89 e0             	mov    %r12,%rax
  4022f8:	5b                   	pop    %rbx
  4022f9:	5d                   	pop    %rbp
  4022fa:	41 5c                	pop    %r12
  4022fc:	c3                   	ret    

00000000004022fd <notify_server>:
  4022fd:	f3 0f 1e fa          	endbr64 
  402301:	55                   	push   %rbp
  402302:	53                   	push   %rbx
  402303:	4c 8d 9c 24 00 c0 ff 	lea    -0x4000(%rsp),%r11
  40230a:	ff 
  40230b:	48 81 ec 00 10 00 00 	sub    $0x1000,%rsp
  402312:	48 83 0c 24 00       	orq    $0x0,(%rsp)
  402317:	4c 39 dc             	cmp    %r11,%rsp
  40231a:	75 ef                	jne    40230b <notify_server+0xe>
  40231c:	48 83 ec 18          	sub    $0x18,%rsp
  402320:	64 48 8b 04 25 28 00 	mov    %fs:0x28,%rax
  402327:	00 00 
  402329:	48 89 84 24 08 40 00 	mov    %rax,0x4008(%rsp)
  402330:	00 
  402331:	31 c0                	xor    %eax,%eax
  402333:	83 3d ee 51 00 00 00 	cmpl   $0x0,0x51ee(%rip)        # 407528 <is_checker>
  40233a:	0f 85 b7 01 00 00    	jne    4024f7 <notify_server+0x1fa>
  402340:	89 fb                	mov    %edi,%ebx
  402342:	81 3d f8 5d 00 00 9c 	cmpl   $0x1f9c,0x5df8(%rip)        # 408144 <gets_cnt>
  402349:	1f 00 00 
  40234c:	7f 18                	jg     402366 <notify_server+0x69>
  40234e:	0f be 05 f3 5d 00 00 	movsbl 0x5df3(%rip),%eax        # 408148 <target_prefix>
  402355:	83 3d 44 51 00 00 00 	cmpl   $0x0,0x5144(%rip)        # 4074a0 <notify>
  40235c:	74 23                	je     402381 <notify_server+0x84>
  40235e:	8b 15 bc 51 00 00    	mov    0x51bc(%rip),%edx        # 407520 <authkey>
  402364:	eb 20                	jmp    402386 <notify_server+0x89>
  402366:	48 8d 35 eb 21 00 00 	lea    0x21eb(%rip),%rsi        # 404558 <_IO_stdin_used+0x558>
  40236d:	bf 01 00 00 00       	mov    $0x1,%edi
  402372:	e8 49 f0 ff ff       	call   4013c0 <__printf_chk@plt>
  402377:	bf 01 00 00 00       	mov    $0x1,%edi
  40237c:	e8 8f f0 ff ff       	call   401410 <exit@plt>
  402381:	ba ff ff ff ff       	mov    $0xffffffff,%edx
  402386:	85 db                	test   %ebx,%ebx
  402388:	0f 84 9b 00 00 00    	je     402429 <notify_server+0x12c>
  40238e:	48 8d 2d b4 20 00 00 	lea    0x20b4(%rip),%rbp        # 404449 <_IO_stdin_used+0x449>
  402395:	48 89 e7             	mov    %rsp,%rdi
  402398:	48 8d 0d a1 51 00 00 	lea    0x51a1(%rip),%rcx        # 407540 <gets_buf>
  40239f:	51                   	push   %rcx
  4023a0:	56                   	push   %rsi
  4023a1:	50                   	push   %rax
  4023a2:	52                   	push   %rdx
  4023a3:	49 89 e9             	mov    %rbp,%r9
  4023a6:	44 8b 05 a3 4d 00 00 	mov    0x4da3(%rip),%r8d        # 407150 <target_id>
  4023ad:	48 8d 0d 9a 20 00 00 	lea    0x209a(%rip),%rcx        # 40444e <_IO_stdin_used+0x44e>
  4023b4:	ba 00 20 00 00       	mov    $0x2000,%edx
  4023b9:	be 01 00 00 00       	mov    $0x1,%esi
  4023be:	b8 00 00 00 00       	mov    $0x0,%eax
  4023c3:	e8 88 f0 ff ff       	call   401450 <__sprintf_chk@plt>
  4023c8:	48 83 c4 20          	add    $0x20,%rsp
  4023cc:	83 3d cd 50 00 00 00 	cmpl   $0x0,0x50cd(%rip)        # 4074a0 <notify>
  4023d3:	0f 84 95 00 00 00    	je     40246e <notify_server+0x171>
  4023d9:	48 89 e1             	mov    %rsp,%rcx
  4023dc:	4c 8d 8c 24 00 20 00 	lea    0x2000(%rsp),%r9
  4023e3:	00 
  4023e4:	41 b8 00 00 00 00    	mov    $0x0,%r8d
  4023ea:	48 8b 15 77 4d 00 00 	mov    0x4d77(%rip),%rdx        # 407168 <lab>
  4023f1:	48 8b 35 78 4d 00 00 	mov    0x4d78(%rip),%rsi        # 407170 <course>
  4023f8:	48 8b 3d 61 4d 00 00 	mov    0x4d61(%rip),%rdi        # 407160 <user_id>
  4023ff:	e8 75 12 00 00       	call   403679 <driver_post>
  402404:	85 c0                	test   %eax,%eax
  402406:	78 2d                	js     402435 <notify_server+0x138>
  402408:	85 db                	test   %ebx,%ebx
  40240a:	74 51                	je     40245d <notify_server+0x160>
  40240c:	48 8d 3d 75 21 00 00 	lea    0x2175(%rip),%rdi        # 404588 <_IO_stdin_used+0x588>
  402413:	e8 98 ee ff ff       	call   4012b0 <puts@plt>
  402418:	48 8d 3d 57 20 00 00 	lea    0x2057(%rip),%rdi        # 404476 <_IO_stdin_used+0x476>
  40241f:	e8 8c ee ff ff       	call   4012b0 <puts@plt>
  402424:	e9 ce 00 00 00       	jmp    4024f7 <notify_server+0x1fa>
  402429:	48 8d 2d 14 20 00 00 	lea    0x2014(%rip),%rbp        # 404444 <_IO_stdin_used+0x444>
  402430:	e9 60 ff ff ff       	jmp    402395 <notify_server+0x98>
  402435:	48 8d 94 24 00 20 00 	lea    0x2000(%rsp),%rdx
  40243c:	00 
  40243d:	48 8d 35 26 20 00 00 	lea    0x2026(%rip),%rsi        # 40446a <_IO_stdin_used+0x46a>
  402444:	bf 01 00 00 00       	mov    $0x1,%edi
  402449:	b8 00 00 00 00       	mov    $0x0,%eax
  40244e:	e8 6d ef ff ff       	call   4013c0 <__printf_chk@plt>
  402453:	bf 01 00 00 00       	mov    $0x1,%edi
  402458:	e8 b3 ef ff ff       	call   401410 <exit@plt>
  40245d:	48 8d 3d 1c 20 00 00 	lea    0x201c(%rip),%rdi        # 404480 <_IO_stdin_used+0x480>
  402464:	e8 47 ee ff ff       	call   4012b0 <puts@plt>
  402469:	e9 89 00 00 00       	jmp    4024f7 <notify_server+0x1fa>
  40246e:	48 89 ea             	mov    %rbp,%rdx
  402471:	48 8d 35 48 21 00 00 	lea    0x2148(%rip),%rsi        # 4045c0 <_IO_stdin_used+0x5c0>
  402478:	bf 01 00 00 00       	mov    $0x1,%edi
  40247d:	b8 00 00 00 00       	mov    $0x0,%eax
  402482:	e8 39 ef ff ff       	call   4013c0 <__printf_chk@plt>
  402487:	48 8b 15 d2 4c 00 00 	mov    0x4cd2(%rip),%rdx        # 407160 <user_id>
  40248e:	48 8d 35 f2 1f 00 00 	lea    0x1ff2(%rip),%rsi        # 404487 <_IO_stdin_used+0x487>
  402495:	bf 01 00 00 00       	mov    $0x1,%edi
  40249a:	b8 00 00 00 00       	mov    $0x0,%eax
  40249f:	e8 1c ef ff ff       	call   4013c0 <__printf_chk@plt>
  4024a4:	48 8b 15 c5 4c 00 00 	mov    0x4cc5(%rip),%rdx        # 407170 <course>
  4024ab:	48 8d 35 e2 1f 00 00 	lea    0x1fe2(%rip),%rsi        # 404494 <_IO_stdin_used+0x494>
  4024b2:	bf 01 00 00 00       	mov    $0x1,%edi
  4024b7:	b8 00 00 00 00       	mov    $0x0,%eax
  4024bc:	e8 ff ee ff ff       	call   4013c0 <__printf_chk@plt>
  4024c1:	48 8b 15 a0 4c 00 00 	mov    0x4ca0(%rip),%rdx        # 407168 <lab>
  4024c8:	48 8d 35 d1 1f 00 00 	lea    0x1fd1(%rip),%rsi        # 4044a0 <_IO_stdin_used+0x4a0>
  4024cf:	bf 01 00 00 00       	mov    $0x1,%edi
  4024d4:	b8 00 00 00 00       	mov    $0x0,%eax
  4024d9:	e8 e2 ee ff ff       	call   4013c0 <__printf_chk@plt>
  4024de:	48 89 e2             	mov    %rsp,%rdx
  4024e1:	48 8d 35 c1 1f 00 00 	lea    0x1fc1(%rip),%rsi        # 4044a9 <_IO_stdin_used+0x4a9>
  4024e8:	bf 01 00 00 00       	mov    $0x1,%edi
  4024ed:	b8 00 00 00 00       	mov    $0x0,%eax
  4024f2:	e8 c9 ee ff ff       	call   4013c0 <__printf_chk@plt>
  4024f7:	48 8b 84 24 08 40 00 	mov    0x4008(%rsp),%rax
  4024fe:	00 
  4024ff:	64 48 33 04 25 28 00 	xor    %fs:0x28,%rax
  402506:	00 00 
  402508:	75 0a                	jne    402514 <notify_server+0x217>
  40250a:	48 81 c4 18 40 00 00 	add    $0x4018,%rsp
  402511:	5b                   	pop    %rbx
  402512:	5d                   	pop    %rbp
  402513:	c3                   	ret    
  402514:	e8 72 02 00 00       	call   40278b <__stack_chk_fail>

0000000000402519 <validate>:
  402519:	f3 0f 1e fa          	endbr64 
  40251d:	53                   	push   %rbx
  40251e:	89 fb                	mov    %edi,%ebx
  402520:	83 3d 01 50 00 00 00 	cmpl   $0x0,0x5001(%rip)        # 407528 <is_checker>
  402527:	74 79                	je     4025a2 <validate+0x89>
  402529:	39 3d ed 4f 00 00    	cmp    %edi,0x4fed(%rip)        # 40751c <vlevel>
  40252f:	75 39                	jne    40256a <validate+0x51>
  402531:	8b 15 e1 4f 00 00    	mov    0x4fe1(%rip),%edx        # 407518 <check_level>
  402537:	39 fa                	cmp    %edi,%edx
  402539:	75 45                	jne    402580 <validate+0x67>
  40253b:	0f be 0d 06 5c 00 00 	movsbl 0x5c06(%rip),%ecx        # 408148 <target_prefix>
  402542:	4c 8d 0d f7 4f 00 00 	lea    0x4ff7(%rip),%r9        # 407540 <gets_buf>
  402549:	41 89 f8             	mov    %edi,%r8d
  40254c:	8b 15 ce 4f 00 00    	mov    0x4fce(%rip),%edx        # 407520 <authkey>
  402552:	48 8d 35 b7 20 00 00 	lea    0x20b7(%rip),%rsi        # 404610 <_IO_stdin_used+0x610>
  402559:	bf 01 00 00 00       	mov    $0x1,%edi
  40255e:	b8 00 00 00 00       	mov    $0x0,%eax
  402563:	e8 58 ee ff ff       	call   4013c0 <__printf_chk@plt>
  402568:	5b                   	pop    %rbx
  402569:	c3                   	ret    
  40256a:	48 8d 3d 44 1f 00 00 	lea    0x1f44(%rip),%rdi        # 4044b5 <_IO_stdin_used+0x4b5>
  402571:	e8 3a ed ff ff       	call   4012b0 <puts@plt>
  402576:	b8 00 00 00 00       	mov    $0x0,%eax
  40257b:	e8 e9 fc ff ff       	call   402269 <check_fail>
  402580:	89 f9                	mov    %edi,%ecx
  402582:	48 8d 35 5f 20 00 00 	lea    0x205f(%rip),%rsi        # 4045e8 <_IO_stdin_used+0x5e8>
  402589:	bf 01 00 00 00       	mov    $0x1,%edi
  40258e:	b8 00 00 00 00       	mov    $0x0,%eax
  402593:	e8 28 ee ff ff       	call   4013c0 <__printf_chk@plt>
  402598:	b8 00 00 00 00       	mov    $0x0,%eax
  40259d:	e8 c7 fc ff ff       	call   402269 <check_fail>
  4025a2:	39 3d 74 4f 00 00    	cmp    %edi,0x4f74(%rip)        # 40751c <vlevel>
  4025a8:	74 1a                	je     4025c4 <validate+0xab>
  4025aa:	48 8d 3d 04 1f 00 00 	lea    0x1f04(%rip),%rdi        # 4044b5 <_IO_stdin_used+0x4b5>
  4025b1:	e8 fa ec ff ff       	call   4012b0 <puts@plt>
  4025b6:	89 de                	mov    %ebx,%esi
  4025b8:	bf 00 00 00 00       	mov    $0x0,%edi
  4025bd:	e8 3b fd ff ff       	call   4022fd <notify_server>
  4025c2:	eb a4                	jmp    402568 <validate+0x4f>
  4025c4:	0f be 0d 7d 5b 00 00 	movsbl 0x5b7d(%rip),%ecx        # 408148 <target_prefix>
  4025cb:	89 fa                	mov    %edi,%edx
  4025cd:	48 8d 35 64 20 00 00 	lea    0x2064(%rip),%rsi        # 404638 <_IO_stdin_used+0x638>
  4025d4:	bf 01 00 00 00       	mov    $0x1,%edi
  4025d9:	b8 00 00 00 00       	mov    $0x0,%eax
  4025de:	e8 dd ed ff ff       	call   4013c0 <__printf_chk@plt>
  4025e3:	89 de                	mov    %ebx,%esi
  4025e5:	bf 01 00 00 00       	mov    $0x1,%edi
  4025ea:	e8 0e fd ff ff       	call   4022fd <notify_server>
  4025ef:	e9 74 ff ff ff       	jmp    402568 <validate+0x4f>

00000000004025f4 <fail>:
  4025f4:	f3 0f 1e fa          	endbr64 
  4025f8:	48 83 ec 08          	sub    $0x8,%rsp
  4025fc:	83 3d 25 4f 00 00 00 	cmpl   $0x0,0x4f25(%rip)        # 407528 <is_checker>
  402603:	75 11                	jne    402616 <fail+0x22>
  402605:	89 fe                	mov    %edi,%esi
  402607:	bf 00 00 00 00       	mov    $0x0,%edi
  40260c:	e8 ec fc ff ff       	call   4022fd <notify_server>
  402611:	48 83 c4 08          	add    $0x8,%rsp
  402615:	c3                   	ret    
  402616:	b8 00 00 00 00       	mov    $0x0,%eax
  40261b:	e8 49 fc ff ff       	call   402269 <check_fail>

0000000000402620 <bushandler>:
  402620:	f3 0f 1e fa          	endbr64 
  402624:	50                   	push   %rax
  402625:	58                   	pop    %rax
  402626:	48 83 ec 08          	sub    $0x8,%rsp
  40262a:	83 3d f7 4e 00 00 00 	cmpl   $0x0,0x4ef7(%rip)        # 407528 <is_checker>
  402631:	74 16                	je     402649 <bushandler+0x29>
  402633:	48 8d 3d 99 1e 00 00 	lea    0x1e99(%rip),%rdi        # 4044d3 <_IO_stdin_used+0x4d3>
  40263a:	e8 71 ec ff ff       	call   4012b0 <puts@plt>
  40263f:	b8 00 00 00 00       	mov    $0x0,%eax
  402644:	e8 20 fc ff ff       	call   402269 <check_fail>
  402649:	48 8d 3d 20 20 00 00 	lea    0x2020(%rip),%rdi        # 404670 <_IO_stdin_used+0x670>
  402650:	e8 5b ec ff ff       	call   4012b0 <puts@plt>
  402655:	48 8d 3d 81 1e 00 00 	lea    0x1e81(%rip),%rdi        # 4044dd <_IO_stdin_used+0x4dd>
  40265c:	e8 4f ec ff ff       	call   4012b0 <puts@plt>
  402661:	be 00 00 00 00       	mov    $0x0,%esi
  402666:	bf 00 00 00 00       	mov    $0x0,%edi
  40266b:	e8 8d fc ff ff       	call   4022fd <notify_server>
  402670:	bf 01 00 00 00       	mov    $0x1,%edi
  402675:	e8 96 ed ff ff       	call   401410 <exit@plt>

000000000040267a <seghandler>:
  40267a:	f3 0f 1e fa          	endbr64 
  40267e:	50                   	push   %rax
  40267f:	58                   	pop    %rax
  402680:	48 83 ec 08          	sub    $0x8,%rsp
  402684:	83 3d 9d 4e 00 00 00 	cmpl   $0x0,0x4e9d(%rip)        # 407528 <is_checker>
  40268b:	74 16                	je     4026a3 <seghandler+0x29>
  40268d:	48 8d 3d 5f 1e 00 00 	lea    0x1e5f(%rip),%rdi        # 4044f3 <_IO_stdin_used+0x4f3>
  402694:	e8 17 ec ff ff       	call   4012b0 <puts@plt>
  402699:	b8 00 00 00 00       	mov    $0x0,%eax
  40269e:	e8 c6 fb ff ff       	call   402269 <check_fail>
  4026a3:	48 8d 3d e6 1f 00 00 	lea    0x1fe6(%rip),%rdi        # 404690 <_IO_stdin_used+0x690>
  4026aa:	e8 01 ec ff ff       	call   4012b0 <puts@plt>
  4026af:	48 8d 3d 27 1e 00 00 	lea    0x1e27(%rip),%rdi        # 4044dd <_IO_stdin_used+0x4dd>
  4026b6:	e8 f5 eb ff ff       	call   4012b0 <puts@plt>
  4026bb:	be 00 00 00 00       	mov    $0x0,%esi
  4026c0:	bf 00 00 00 00       	mov    $0x0,%edi
  4026c5:	e8 33 fc ff ff       	call   4022fd <notify_server>
  4026ca:	bf 01 00 00 00       	mov    $0x1,%edi
  4026cf:	e8 3c ed ff ff       	call   401410 <exit@plt>

00000000004026d4 <illegalhandler>:
  4026d4:	f3 0f 1e fa          	endbr64 
  4026d8:	50                   	push   %rax
  4026d9:	58                   	pop    %rax
  4026da:	48 83 ec 08          	sub    $0x8,%rsp
  4026de:	83 3d 43 4e 00 00 00 	cmpl   $0x0,0x4e43(%rip)        # 407528 <is_checker>
  4026e5:	74 16                	je     4026fd <illegalhandler+0x29>
  4026e7:	48 8d 3d 18 1e 00 00 	lea    0x1e18(%rip),%rdi        # 404506 <_IO_stdin_used+0x506>
  4026ee:	e8 bd eb ff ff       	call   4012b0 <puts@plt>
  4026f3:	b8 00 00 00 00       	mov    $0x0,%eax
  4026f8:	e8 6c fb ff ff       	call   402269 <check_fail>
  4026fd:	48 8d 3d b4 1f 00 00 	lea    0x1fb4(%rip),%rdi        # 4046b8 <_IO_stdin_used+0x6b8>
  402704:	e8 a7 eb ff ff       	call   4012b0 <puts@plt>
  402709:	48 8d 3d cd 1d 00 00 	lea    0x1dcd(%rip),%rdi        # 4044dd <_IO_stdin_used+0x4dd>
  402710:	e8 9b eb ff ff       	call   4012b0 <puts@plt>
  402715:	be 00 00 00 00       	mov    $0x0,%esi
  40271a:	bf 00 00 00 00       	mov    $0x0,%edi
  40271f:	e8 d9 fb ff ff       	call   4022fd <notify_server>
  402724:	bf 01 00 00 00       	mov    $0x1,%edi
  402729:	e8 e2 ec ff ff       	call   401410 <exit@plt>

000000000040272e <sigalrmhandler>:
  40272e:	f3 0f 1e fa          	endbr64 
  402732:	50                   	push   %rax
  402733:	58                   	pop    %rax
  402734:	48 83 ec 08          	sub    $0x8,%rsp
  402738:	83 3d e9 4d 00 00 00 	cmpl   $0x0,0x4de9(%rip)        # 407528 <is_checker>
  40273f:	74 16                	je     402757 <sigalrmhandler+0x29>
  402741:	48 8d 3d d2 1d 00 00 	lea    0x1dd2(%rip),%rdi        # 40451a <_IO_stdin_used+0x51a>
  402748:	e8 63 eb ff ff       	call   4012b0 <puts@plt>
  40274d:	b8 00 00 00 00       	mov    $0x0,%eax
  402752:	e8 12 fb ff ff       	call   402269 <check_fail>
  402757:	ba 02 00 00 00       	mov    $0x2,%edx
  40275c:	48 8d 35 85 1f 00 00 	lea    0x1f85(%rip),%rsi        # 4046e8 <_IO_stdin_used+0x6e8>
  402763:	bf 01 00 00 00       	mov    $0x1,%edi
  402768:	b8 00 00 00 00       	mov    $0x0,%eax
  40276d:	e8 4e ec ff ff       	call   4013c0 <__printf_chk@plt>
  402772:	be 00 00 00 00       	mov    $0x0,%esi
  402777:	bf 00 00 00 00       	mov    $0x0,%edi
  40277c:	e8 7c fb ff ff       	call   4022fd <notify_server>
  402781:	bf 01 00 00 00       	mov    $0x1,%edi
  402786:	e8 85 ec ff ff       	call   401410 <exit@plt>

000000000040278b <__stack_chk_fail>:
  40278b:	f3 0f 1e fa          	endbr64 
  40278f:	50                   	push   %rax
  402790:	58                   	pop    %rax
  402791:	48 83 ec 08          	sub    $0x8,%rsp
  402795:	83 3d 8c 4d 00 00 00 	cmpl   $0x0,0x4d8c(%rip)        # 407528 <is_checker>
  40279c:	74 16                	je     4027b4 <__stack_chk_fail+0x29>
  40279e:	48 8d 3d 7d 1d 00 00 	lea    0x1d7d(%rip),%rdi        # 404522 <_IO_stdin_used+0x522>
  4027a5:	e8 06 eb ff ff       	call   4012b0 <puts@plt>
  4027aa:	b8 00 00 00 00       	mov    $0x0,%eax
  4027af:	e8 b5 fa ff ff       	call   402269 <check_fail>
  4027b4:	48 8d 3d 65 1f 00 00 	lea    0x1f65(%rip),%rdi        # 404720 <_IO_stdin_used+0x720>
  4027bb:	e8 f0 ea ff ff       	call   4012b0 <puts@plt>
  4027c0:	48 8d 3d 16 1d 00 00 	lea    0x1d16(%rip),%rdi        # 4044dd <_IO_stdin_used+0x4dd>
  4027c7:	e8 e4 ea ff ff       	call   4012b0 <puts@plt>
  4027cc:	be 00 00 00 00       	mov    $0x0,%esi
  4027d1:	bf 00 00 00 00       	mov    $0x0,%edi
  4027d6:	e8 22 fb ff ff       	call   4022fd <notify_server>
  4027db:	bf 01 00 00 00       	mov    $0x1,%edi
  4027e0:	e8 2b ec ff ff       	call   401410 <exit@plt>

00000000004027e5 <launch>:
  4027e5:	f3 0f 1e fa          	endbr64 
  4027e9:	55                   	push   %rbp
  4027ea:	48 89 e5             	mov    %rsp,%rbp
  4027ed:	53                   	push   %rbx
  4027ee:	48 83 ec 18          	sub    $0x18,%rsp
  4027f2:	48 89 fa             	mov    %rdi,%rdx
  4027f5:	89 f3                	mov    %esi,%ebx
  4027f7:	64 48 8b 04 25 28 00 	mov    %fs:0x28,%rax
  4027fe:	00 00 
  402800:	48 89 45 e8          	mov    %rax,-0x18(%rbp)
  402804:	31 c0                	xor    %eax,%eax
  402806:	48 8d 47 17          	lea    0x17(%rdi),%rax
  40280a:	48 89 c1             	mov    %rax,%rcx
  40280d:	48 83 e1 f0          	and    $0xfffffffffffffff0,%rcx
  402811:	48 25 00 f0 ff ff    	and    $0xfffffffffffff000,%rax
  402817:	48 89 e6             	mov    %rsp,%rsi
  40281a:	48 29 c6             	sub    %rax,%rsi
  40281d:	48 89 f0             	mov    %rsi,%rax
  402820:	48 39 c4             	cmp    %rax,%rsp
  402823:	74 12                	je     402837 <launch+0x52>
  402825:	48 81 ec 00 10 00 00 	sub    $0x1000,%rsp
  40282c:	48 83 8c 24 f8 0f 00 	orq    $0x0,0xff8(%rsp)
  402833:	00 00 
  402835:	eb e9                	jmp    402820 <launch+0x3b>
  402837:	48 89 c8             	mov    %rcx,%rax
  40283a:	25 ff 0f 00 00       	and    $0xfff,%eax
  40283f:	48 29 c4             	sub    %rax,%rsp
  402842:	48 85 c0             	test   %rax,%rax
  402845:	74 06                	je     40284d <launch+0x68>
  402847:	48 83 4c 04 f8 00    	orq    $0x0,-0x8(%rsp,%rax,1)
  40284d:	48 8d 7c 24 0f       	lea    0xf(%rsp),%rdi
  402852:	48 83 e7 f0          	and    $0xfffffffffffffff0,%rdi
  402856:	be f4 00 00 00       	mov    $0xf4,%esi
  40285b:	e8 80 ea ff ff       	call   4012e0 <memset@plt>
  402860:	48 8b 05 59 4c 00 00 	mov    0x4c59(%rip),%rax        # 4074c0 <stdin@GLIBC_2.2.5>
  402867:	48 39 05 a2 4c 00 00 	cmp    %rax,0x4ca2(%rip)        # 407510 <infile>
  40286e:	74 42                	je     4028b2 <launch+0xcd>
  402870:	c7 05 a2 4c 00 00 00 	movl   $0x0,0x4ca2(%rip)        # 40751c <vlevel>
  402877:	00 00 00 
  40287a:	85 db                	test   %ebx,%ebx
  40287c:	75 42                	jne    4028c0 <launch+0xdb>
  40287e:	b8 00 00 00 00       	mov    $0x0,%eax
  402883:	e8 db f8 ff ff       	call   402163 <test>
  402888:	83 3d 99 4c 00 00 00 	cmpl   $0x0,0x4c99(%rip)        # 407528 <is_checker>
  40288f:	75 3b                	jne    4028cc <launch+0xe7>
  402891:	48 8d 3d b1 1c 00 00 	lea    0x1cb1(%rip),%rdi        # 404549 <_IO_stdin_used+0x549>
  402898:	e8 13 ea ff ff       	call   4012b0 <puts@plt>
  40289d:	48 8b 45 e8          	mov    -0x18(%rbp),%rax
  4028a1:	64 48 33 04 25 28 00 	xor    %fs:0x28,%rax
  4028a8:	00 00 
  4028aa:	75 36                	jne    4028e2 <launch+0xfd>
  4028ac:	48 8b 5d f8          	mov    -0x8(%rbp),%rbx
  4028b0:	c9                   	leave  
  4028b1:	c3                   	ret    
  4028b2:	48 8d 3d 78 1c 00 00 	lea    0x1c78(%rip),%rdi        # 404531 <_IO_stdin_used+0x531>
  4028b9:	e8 f2 e9 ff ff       	call   4012b0 <puts@plt>
  4028be:	eb b0                	jmp    402870 <launch+0x8b>
  4028c0:	b8 00 00 00 00       	mov    $0x0,%eax
  4028c5:	e8 01 f9 ff ff       	call   4021cb <test2>
  4028ca:	eb bc                	jmp    402888 <launch+0xa3>
  4028cc:	48 8d 3d 6b 1c 00 00 	lea    0x1c6b(%rip),%rdi        # 40453e <_IO_stdin_used+0x53e>
  4028d3:	e8 d8 e9 ff ff       	call   4012b0 <puts@plt>
  4028d8:	b8 00 00 00 00       	mov    $0x0,%eax
  4028dd:	e8 87 f9 ff ff       	call   402269 <check_fail>
  4028e2:	e8 a4 fe ff ff       	call   40278b <__stack_chk_fail>

00000000004028e7 <stable_launch>:
  4028e7:	f3 0f 1e fa          	endbr64 
  4028eb:	55                   	push   %rbp
  4028ec:	53                   	push   %rbx
  4028ed:	48 83 ec 08          	sub    $0x8,%rsp
  4028f1:	89 f5                	mov    %esi,%ebp
  4028f3:	48 89 3d 0e 4c 00 00 	mov    %rdi,0x4c0e(%rip)        # 407508 <global_offset>
  4028fa:	41 b9 00 00 00 00    	mov    $0x0,%r9d
  402900:	41 b8 00 00 00 00    	mov    $0x0,%r8d
  402906:	b9 32 01 00 00       	mov    $0x132,%ecx
  40290b:	ba 07 00 00 00       	mov    $0x7,%edx
  402910:	be 00 00 10 00       	mov    $0x100000,%esi
  402915:	bf 00 60 58 55       	mov    $0x55586000,%edi
  40291a:	e8 b1 e9 ff ff       	call   4012d0 <mmap@plt>
  40291f:	48 89 c3             	mov    %rax,%rbx
  402922:	48 3d 00 60 58 55    	cmp    $0x55586000,%rax
  402928:	75 4a                	jne    402974 <stable_launch+0x8d>
  40292a:	48 8d 90 f8 ff 0f 00 	lea    0xffff8(%rax),%rdx
  402931:	48 89 15 18 58 00 00 	mov    %rdx,0x5818(%rip)        # 408150 <stack_top>
  402938:	48 89 e0             	mov    %rsp,%rax
  40293b:	48 89 d4             	mov    %rdx,%rsp
  40293e:	48 89 c2             	mov    %rax,%rdx
  402941:	48 89 15 b8 4b 00 00 	mov    %rdx,0x4bb8(%rip)        # 407500 <global_save_stack>
  402948:	89 ee                	mov    %ebp,%esi
  40294a:	48 8b 3d b7 4b 00 00 	mov    0x4bb7(%rip),%rdi        # 407508 <global_offset>
  402951:	e8 8f fe ff ff       	call   4027e5 <launch>
  402956:	48 8b 05 a3 4b 00 00 	mov    0x4ba3(%rip),%rax        # 407500 <global_save_stack>
  40295d:	48 89 c4             	mov    %rax,%rsp
  402960:	be 00 00 10 00       	mov    $0x100000,%esi
  402965:	48 89 df             	mov    %rbx,%rdi
  402968:	e8 43 ea ff ff       	call   4013b0 <munmap@plt>
  40296d:	48 83 c4 08          	add    $0x8,%rsp
  402971:	5b                   	pop    %rbx
  402972:	5d                   	pop    %rbp
  402973:	c3                   	ret    
  402974:	be 00 00 10 00       	mov    $0x100000,%esi
  402979:	48 89 c7             	mov    %rax,%rdi
  40297c:	e8 2f ea ff ff       	call   4013b0 <munmap@plt>
  402981:	b9 00 60 58 55       	mov    $0x55586000,%ecx
  402986:	48 8d 15 bb 1d 00 00 	lea    0x1dbb(%rip),%rdx        # 404748 <_IO_stdin_used+0x748>
  40298d:	be 01 00 00 00       	mov    $0x1,%esi
  402992:	48 8b 3d 47 4b 00 00 	mov    0x4b47(%rip),%rdi        # 4074e0 <stderr@GLIBC_2.2.5>
  402999:	b8 00 00 00 00       	mov    $0x0,%eax
  40299e:	e8 8d ea ff ff       	call   401430 <__fprintf_chk@plt>
  4029a3:	bf 01 00 00 00       	mov    $0x1,%edi
  4029a8:	e8 63 ea ff ff       	call   401410 <exit@plt>

00000000004029ad <rio_readinitb>:
  4029ad:	89 37                	mov    %esi,(%rdi)
  4029af:	c7 47 04 00 00 00 00 	movl   $0x0,0x4(%rdi)
  4029b6:	48 8d 47 10          	lea    0x10(%rdi),%rax
  4029ba:	48 89 47 08          	mov    %rax,0x8(%rdi)
  4029be:	c3                   	ret    

00000000004029bf <sigalrm_handler>:
  4029bf:	f3 0f 1e fa          	endbr64 
  4029c3:	50                   	push   %rax
  4029c4:	58                   	pop    %rax
  4029c5:	48 83 ec 08          	sub    $0x8,%rsp
  4029c9:	b9 00 00 00 00       	mov    $0x0,%ecx
  4029ce:	48 8d 15 ab 1d 00 00 	lea    0x1dab(%rip),%rdx        # 404780 <trans_char+0x10>
  4029d5:	be 01 00 00 00       	mov    $0x1,%esi
  4029da:	48 8b 3d ff 4a 00 00 	mov    0x4aff(%rip),%rdi        # 4074e0 <stderr@GLIBC_2.2.5>
  4029e1:	b8 00 00 00 00       	mov    $0x0,%eax
  4029e6:	e8 45 ea ff ff       	call   401430 <__fprintf_chk@plt>
  4029eb:	bf 01 00 00 00       	mov    $0x1,%edi
  4029f0:	e8 1b ea ff ff       	call   401410 <exit@plt>

00000000004029f5 <rio_writen>:
  4029f5:	41 55                	push   %r13
  4029f7:	41 54                	push   %r12
  4029f9:	55                   	push   %rbp
  4029fa:	53                   	push   %rbx
  4029fb:	48 83 ec 08          	sub    $0x8,%rsp
  4029ff:	41 89 fc             	mov    %edi,%r12d
  402a02:	48 89 f5             	mov    %rsi,%rbp
  402a05:	49 89 d5             	mov    %rdx,%r13
  402a08:	48 89 d3             	mov    %rdx,%rbx
  402a0b:	eb 06                	jmp    402a13 <rio_writen+0x1e>
  402a0d:	48 29 c3             	sub    %rax,%rbx
  402a10:	48 01 c5             	add    %rax,%rbp
  402a13:	48 85 db             	test   %rbx,%rbx
  402a16:	74 24                	je     402a3c <rio_writen+0x47>
  402a18:	48 89 da             	mov    %rbx,%rdx
  402a1b:	48 89 ee             	mov    %rbp,%rsi
  402a1e:	44 89 e7             	mov    %r12d,%edi
  402a21:	e8 9a e8 ff ff       	call   4012c0 <write@plt>
  402a26:	48 85 c0             	test   %rax,%rax
  402a29:	7f e2                	jg     402a0d <rio_writen+0x18>
  402a2b:	e8 30 e8 ff ff       	call   401260 <__errno_location@plt>
  402a30:	83 38 04             	cmpl   $0x4,(%rax)
  402a33:	75 15                	jne    402a4a <rio_writen+0x55>
  402a35:	b8 00 00 00 00       	mov    $0x0,%eax
  402a3a:	eb d1                	jmp    402a0d <rio_writen+0x18>
  402a3c:	4c 89 e8             	mov    %r13,%rax
  402a3f:	48 83 c4 08          	add    $0x8,%rsp
  402a43:	5b                   	pop    %rbx
  402a44:	5d                   	pop    %rbp
  402a45:	41 5c                	pop    %r12
  402a47:	41 5d                	pop    %r13
  402a49:	c3                   	ret    
  402a4a:	48 c7 c0 ff ff ff ff 	mov    $0xffffffffffffffff,%rax
  402a51:	eb ec                	jmp    402a3f <rio_writen+0x4a>

0000000000402a53 <rio_read>:
  402a53:	41 55                	push   %r13
  402a55:	41 54                	push   %r12
  402a57:	55                   	push   %rbp
  402a58:	53                   	push   %rbx
  402a59:	48 83 ec 08          	sub    $0x8,%rsp
  402a5d:	48 89 fb             	mov    %rdi,%rbx
  402a60:	49 89 f5             	mov    %rsi,%r13
  402a63:	49 89 d4             	mov    %rdx,%r12
  402a66:	eb 17                	jmp    402a7f <rio_read+0x2c>
  402a68:	e8 f3 e7 ff ff       	call   401260 <__errno_location@plt>
  402a6d:	83 38 04             	cmpl   $0x4,(%rax)
  402a70:	74 0d                	je     402a7f <rio_read+0x2c>
  402a72:	48 c7 c0 ff ff ff ff 	mov    $0xffffffffffffffff,%rax
  402a79:	eb 54                	jmp    402acf <rio_read+0x7c>
  402a7b:	48 89 6b 08          	mov    %rbp,0x8(%rbx)
  402a7f:	8b 6b 04             	mov    0x4(%rbx),%ebp
  402a82:	85 ed                	test   %ebp,%ebp
  402a84:	7f 23                	jg     402aa9 <rio_read+0x56>
  402a86:	48 8d 6b 10          	lea    0x10(%rbx),%rbp
  402a8a:	8b 3b                	mov    (%rbx),%edi
  402a8c:	ba 00 20 00 00       	mov    $0x2000,%edx
  402a91:	48 89 ee             	mov    %rbp,%rsi
  402a94:	e8 77 e8 ff ff       	call   401310 <read@plt>
  402a99:	89 43 04             	mov    %eax,0x4(%rbx)
  402a9c:	85 c0                	test   %eax,%eax
  402a9e:	78 c8                	js     402a68 <rio_read+0x15>
  402aa0:	75 d9                	jne    402a7b <rio_read+0x28>
  402aa2:	b8 00 00 00 00       	mov    $0x0,%eax
  402aa7:	eb 26                	jmp    402acf <rio_read+0x7c>
  402aa9:	89 e8                	mov    %ebp,%eax
  402aab:	4c 39 e0             	cmp    %r12,%rax
  402aae:	72 03                	jb     402ab3 <rio_read+0x60>
  402ab0:	44 89 e5             	mov    %r12d,%ebp
  402ab3:	4c 63 e5             	movslq %ebp,%r12
  402ab6:	48 8b 73 08          	mov    0x8(%rbx),%rsi
  402aba:	4c 89 e2             	mov    %r12,%rdx
  402abd:	4c 89 ef             	mov    %r13,%rdi
  402ac0:	e8 ab e8 ff ff       	call   401370 <memcpy@plt>
  402ac5:	4c 01 63 08          	add    %r12,0x8(%rbx)
  402ac9:	29 6b 04             	sub    %ebp,0x4(%rbx)
  402acc:	4c 89 e0             	mov    %r12,%rax
  402acf:	48 83 c4 08          	add    $0x8,%rsp
  402ad3:	5b                   	pop    %rbx
  402ad4:	5d                   	pop    %rbp
  402ad5:	41 5c                	pop    %r12
  402ad7:	41 5d                	pop    %r13
  402ad9:	c3                   	ret    

0000000000402ada <rio_readlineb>:
  402ada:	41 55                	push   %r13
  402adc:	41 54                	push   %r12
  402ade:	55                   	push   %rbp
  402adf:	53                   	push   %rbx
  402ae0:	48 83 ec 18          	sub    $0x18,%rsp
  402ae4:	49 89 fd             	mov    %rdi,%r13
  402ae7:	48 89 f5             	mov    %rsi,%rbp
  402aea:	49 89 d4             	mov    %rdx,%r12
  402aed:	64 48 8b 04 25 28 00 	mov    %fs:0x28,%rax
  402af4:	00 00 
  402af6:	48 89 44 24 08       	mov    %rax,0x8(%rsp)
  402afb:	31 c0                	xor    %eax,%eax
  402afd:	bb 01 00 00 00       	mov    $0x1,%ebx
  402b02:	eb 18                	jmp    402b1c <rio_readlineb+0x42>
  402b04:	85 c0                	test   %eax,%eax
  402b06:	75 65                	jne    402b6d <rio_readlineb+0x93>
  402b08:	48 83 fb 01          	cmp    $0x1,%rbx
  402b0c:	75 3d                	jne    402b4b <rio_readlineb+0x71>
  402b0e:	b8 00 00 00 00       	mov    $0x0,%eax
  402b13:	eb 3d                	jmp    402b52 <rio_readlineb+0x78>
  402b15:	48 83 c3 01          	add    $0x1,%rbx
  402b19:	48 89 d5             	mov    %rdx,%rbp
  402b1c:	4c 39 e3             	cmp    %r12,%rbx
  402b1f:	73 2a                	jae    402b4b <rio_readlineb+0x71>
  402b21:	48 8d 74 24 07       	lea    0x7(%rsp),%rsi
  402b26:	ba 01 00 00 00       	mov    $0x1,%edx
  402b2b:	4c 89 ef             	mov    %r13,%rdi
  402b2e:	e8 20 ff ff ff       	call   402a53 <rio_read>
  402b33:	83 f8 01             	cmp    $0x1,%eax
  402b36:	75 cc                	jne    402b04 <rio_readlineb+0x2a>
  402b38:	48 8d 55 01          	lea    0x1(%rbp),%rdx
  402b3c:	0f b6 44 24 07       	movzbl 0x7(%rsp),%eax
  402b41:	88 45 00             	mov    %al,0x0(%rbp)
  402b44:	3c 0a                	cmp    $0xa,%al
  402b46:	75 cd                	jne    402b15 <rio_readlineb+0x3b>
  402b48:	48 89 d5             	mov    %rdx,%rbp
  402b4b:	c6 45 00 00          	movb   $0x0,0x0(%rbp)
  402b4f:	48 89 d8             	mov    %rbx,%rax
  402b52:	48 8b 4c 24 08       	mov    0x8(%rsp),%rcx
  402b57:	64 48 33 0c 25 28 00 	xor    %fs:0x28,%rcx
  402b5e:	00 00 
  402b60:	75 14                	jne    402b76 <rio_readlineb+0x9c>
  402b62:	48 83 c4 18          	add    $0x18,%rsp
  402b66:	5b                   	pop    %rbx
  402b67:	5d                   	pop    %rbp
  402b68:	41 5c                	pop    %r12
  402b6a:	41 5d                	pop    %r13
  402b6c:	c3                   	ret    
  402b6d:	48 c7 c0 ff ff ff ff 	mov    $0xffffffffffffffff,%rax
  402b74:	eb dc                	jmp    402b52 <rio_readlineb+0x78>
  402b76:	e8 10 fc ff ff       	call   40278b <__stack_chk_fail>

0000000000402b7b <urlencode>:
  402b7b:	41 54                	push   %r12
  402b7d:	55                   	push   %rbp
  402b7e:	53                   	push   %rbx
  402b7f:	48 83 ec 10          	sub    $0x10,%rsp
  402b83:	48 89 fb             	mov    %rdi,%rbx
  402b86:	48 89 f5             	mov    %rsi,%rbp
  402b89:	64 48 8b 04 25 28 00 	mov    %fs:0x28,%rax
  402b90:	00 00 
  402b92:	48 89 44 24 08       	mov    %rax,0x8(%rsp)
  402b97:	31 c0                	xor    %eax,%eax
  402b99:	48 c7 c1 ff ff ff ff 	mov    $0xffffffffffffffff,%rcx
  402ba0:	f2 ae                	repnz scas %es:(%rdi),%al
  402ba2:	48 f7 d1             	not    %rcx
  402ba5:	8d 41 ff             	lea    -0x1(%rcx),%eax
  402ba8:	eb 0f                	jmp    402bb9 <urlencode+0x3e>
  402baa:	44 88 45 00          	mov    %r8b,0x0(%rbp)
  402bae:	48 8d 6d 01          	lea    0x1(%rbp),%rbp
  402bb2:	48 83 c3 01          	add    $0x1,%rbx
  402bb6:	44 89 e0             	mov    %r12d,%eax
  402bb9:	44 8d 60 ff          	lea    -0x1(%rax),%r12d
  402bbd:	85 c0                	test   %eax,%eax
  402bbf:	0f 84 a8 00 00 00    	je     402c6d <urlencode+0xf2>
  402bc5:	44 0f b6 03          	movzbl (%rbx),%r8d
  402bc9:	41 80 f8 2a          	cmp    $0x2a,%r8b
  402bcd:	0f 94 c2             	sete   %dl
  402bd0:	41 80 f8 2d          	cmp    $0x2d,%r8b
  402bd4:	0f 94 c0             	sete   %al
  402bd7:	08 c2                	or     %al,%dl
  402bd9:	75 cf                	jne    402baa <urlencode+0x2f>
  402bdb:	41 80 f8 2e          	cmp    $0x2e,%r8b
  402bdf:	74 c9                	je     402baa <urlencode+0x2f>
  402be1:	41 80 f8 5f          	cmp    $0x5f,%r8b
  402be5:	74 c3                	je     402baa <urlencode+0x2f>
  402be7:	41 8d 40 d0          	lea    -0x30(%r8),%eax
  402beb:	3c 09                	cmp    $0x9,%al
  402bed:	76 bb                	jbe    402baa <urlencode+0x2f>
  402bef:	41 8d 40 bf          	lea    -0x41(%r8),%eax
  402bf3:	3c 19                	cmp    $0x19,%al
  402bf5:	76 b3                	jbe    402baa <urlencode+0x2f>
  402bf7:	41 8d 40 9f          	lea    -0x61(%r8),%eax
  402bfb:	3c 19                	cmp    $0x19,%al
  402bfd:	76 ab                	jbe    402baa <urlencode+0x2f>
  402bff:	41 80 f8 20          	cmp    $0x20,%r8b
  402c03:	74 56                	je     402c5b <urlencode+0xe0>
  402c05:	41 8d 40 e0          	lea    -0x20(%r8),%eax
  402c09:	3c 5f                	cmp    $0x5f,%al
  402c0b:	0f 96 c2             	setbe  %dl
  402c0e:	41 80 f8 09          	cmp    $0x9,%r8b
  402c12:	0f 94 c0             	sete   %al
  402c15:	08 c2                	or     %al,%dl
  402c17:	74 4f                	je     402c68 <urlencode+0xed>
  402c19:	48 89 e7             	mov    %rsp,%rdi
  402c1c:	45 0f b6 c0          	movzbl %r8b,%r8d
  402c20:	48 8d 0d 0e 1c 00 00 	lea    0x1c0e(%rip),%rcx        # 404835 <trans_char+0xc5>
  402c27:	ba 08 00 00 00       	mov    $0x8,%edx
  402c2c:	be 01 00 00 00       	mov    $0x1,%esi
  402c31:	b8 00 00 00 00       	mov    $0x0,%eax
  402c36:	e8 15 e8 ff ff       	call   401450 <__sprintf_chk@plt>
  402c3b:	0f b6 04 24          	movzbl (%rsp),%eax
  402c3f:	88 45 00             	mov    %al,0x0(%rbp)
  402c42:	0f b6 44 24 01       	movzbl 0x1(%rsp),%eax
  402c47:	88 45 01             	mov    %al,0x1(%rbp)
  402c4a:	0f b6 44 24 02       	movzbl 0x2(%rsp),%eax
  402c4f:	88 45 02             	mov    %al,0x2(%rbp)
  402c52:	48 8d 6d 03          	lea    0x3(%rbp),%rbp
  402c56:	e9 57 ff ff ff       	jmp    402bb2 <urlencode+0x37>
  402c5b:	c6 45 00 2b          	movb   $0x2b,0x0(%rbp)
  402c5f:	48 8d 6d 01          	lea    0x1(%rbp),%rbp
  402c63:	e9 4a ff ff ff       	jmp    402bb2 <urlencode+0x37>
  402c68:	b8 ff ff ff ff       	mov    $0xffffffff,%eax
  402c6d:	48 8b 74 24 08       	mov    0x8(%rsp),%rsi
  402c72:	64 48 33 34 25 28 00 	xor    %fs:0x28,%rsi
  402c79:	00 00 
  402c7b:	75 09                	jne    402c86 <urlencode+0x10b>
  402c7d:	48 83 c4 10          	add    $0x10,%rsp
  402c81:	5b                   	pop    %rbx
  402c82:	5d                   	pop    %rbp
  402c83:	41 5c                	pop    %r12
  402c85:	c3                   	ret    
  402c86:	e8 00 fb ff ff       	call   40278b <__stack_chk_fail>

0000000000402c8b <submitr>:
  402c8b:	f3 0f 1e fa          	endbr64 
  402c8f:	41 57                	push   %r15
  402c91:	41 56                	push   %r14
  402c93:	41 55                	push   %r13
  402c95:	41 54                	push   %r12
  402c97:	55                   	push   %rbp
  402c98:	53                   	push   %rbx
  402c99:	4c 8d 9c 24 00 60 ff 	lea    -0xa000(%rsp),%r11
  402ca0:	ff 
  402ca1:	48 81 ec 00 10 00 00 	sub    $0x1000,%rsp
  402ca8:	48 83 0c 24 00       	orq    $0x0,(%rsp)
  402cad:	4c 39 dc             	cmp    %r11,%rsp
  402cb0:	75 ef                	jne    402ca1 <submitr+0x16>
  402cb2:	48 83 ec 68          	sub    $0x68,%rsp
  402cb6:	49 89 fc             	mov    %rdi,%r12
  402cb9:	89 74 24 1c          	mov    %esi,0x1c(%rsp)
  402cbd:	48 89 54 24 08       	mov    %rdx,0x8(%rsp)
  402cc2:	49 89 cd             	mov    %rcx,%r13
  402cc5:	4c 89 44 24 10       	mov    %r8,0x10(%rsp)
  402cca:	4d 89 ce             	mov    %r9,%r14
  402ccd:	48 8b ac 24 a0 a0 00 	mov    0xa0a0(%rsp),%rbp
  402cd4:	00 
  402cd5:	64 48 8b 04 25 28 00 	mov    %fs:0x28,%rax
  402cdc:	00 00 
  402cde:	48 89 84 24 58 a0 00 	mov    %rax,0xa058(%rsp)
  402ce5:	00 
  402ce6:	31 c0                	xor    %eax,%eax
  402ce8:	c7 44 24 2c 00 00 00 	movl   $0x0,0x2c(%rsp)
  402cef:	00 
  402cf0:	ba 00 00 00 00       	mov    $0x0,%edx
  402cf5:	be 01 00 00 00       	mov    $0x1,%esi
  402cfa:	bf 02 00 00 00       	mov    $0x2,%edi
  402cff:	e8 5c e7 ff ff       	call   401460 <socket@plt>
  402d04:	85 c0                	test   %eax,%eax
  402d06:	0f 88 a5 02 00 00    	js     402fb1 <submitr+0x326>
  402d0c:	89 c3                	mov    %eax,%ebx
  402d0e:	4c 89 e7             	mov    %r12,%rdi
  402d11:	e8 2a e6 ff ff       	call   401340 <gethostbyname@plt>
  402d16:	48 85 c0             	test   %rax,%rax
  402d19:	0f 84 de 02 00 00    	je     402ffd <submitr+0x372>
  402d1f:	4c 8d 7c 24 30       	lea    0x30(%rsp),%r15
  402d24:	48 c7 44 24 30 00 00 	movq   $0x0,0x30(%rsp)
  402d2b:	00 00 
  402d2d:	48 c7 44 24 38 00 00 	movq   $0x0,0x38(%rsp)
  402d34:	00 00 
  402d36:	66 c7 44 24 30 02 00 	movw   $0x2,0x30(%rsp)
  402d3d:	48 63 50 14          	movslq 0x14(%rax),%rdx
  402d41:	48 8b 40 18          	mov    0x18(%rax),%rax
  402d45:	48 8b 30             	mov    (%rax),%rsi
  402d48:	48 8d 7c 24 34       	lea    0x34(%rsp),%rdi
  402d4d:	b9 0c 00 00 00       	mov    $0xc,%ecx
  402d52:	e8 f9 e5 ff ff       	call   401350 <__memmove_chk@plt>
  402d57:	0f b7 74 24 1c       	movzwl 0x1c(%rsp),%esi
  402d5c:	66 c1 c6 08          	rol    $0x8,%si
  402d60:	66 89 74 24 32       	mov    %si,0x32(%rsp)
  402d65:	ba 10 00 00 00       	mov    $0x10,%edx
  402d6a:	4c 89 fe             	mov    %r15,%rsi
  402d6d:	89 df                	mov    %ebx,%edi
  402d6f:	e8 ac e6 ff ff       	call   401420 <connect@plt>
  402d74:	85 c0                	test   %eax,%eax
  402d76:	0f 88 f7 02 00 00    	js     403073 <submitr+0x3e8>
  402d7c:	48 c7 c6 ff ff ff ff 	mov    $0xffffffffffffffff,%rsi
  402d83:	b8 00 00 00 00       	mov    $0x0,%eax
  402d88:	48 89 f1             	mov    %rsi,%rcx
  402d8b:	4c 89 f7             	mov    %r14,%rdi
  402d8e:	f2 ae                	repnz scas %es:(%rdi),%al
  402d90:	48 89 ca             	mov    %rcx,%rdx
  402d93:	48 f7 d2             	not    %rdx
  402d96:	48 89 f1             	mov    %rsi,%rcx
  402d99:	48 8b 7c 24 08       	mov    0x8(%rsp),%rdi
  402d9e:	f2 ae                	repnz scas %es:(%rdi),%al
  402da0:	48 f7 d1             	not    %rcx
  402da3:	49 89 c8             	mov    %rcx,%r8
  402da6:	48 89 f1             	mov    %rsi,%rcx
  402da9:	4c 89 ef             	mov    %r13,%rdi
  402dac:	f2 ae                	repnz scas %es:(%rdi),%al
  402dae:	48 f7 d1             	not    %rcx
  402db1:	4d 8d 44 08 fe       	lea    -0x2(%r8,%rcx,1),%r8
  402db6:	48 89 f1             	mov    %rsi,%rcx
  402db9:	48 8b 7c 24 10       	mov    0x10(%rsp),%rdi
  402dbe:	f2 ae                	repnz scas %es:(%rdi),%al
  402dc0:	48 89 c8             	mov    %rcx,%rax
  402dc3:	48 f7 d0             	not    %rax
  402dc6:	49 8d 4c 00 ff       	lea    -0x1(%r8,%rax,1),%rcx
  402dcb:	48 8d 44 52 fd       	lea    -0x3(%rdx,%rdx,2),%rax
  402dd0:	48 8d 84 01 80 00 00 	lea    0x80(%rcx,%rax,1),%rax
  402dd7:	00 
  402dd8:	48 3d 00 20 00 00    	cmp    $0x2000,%rax
  402dde:	0f 87 f7 02 00 00    	ja     4030db <submitr+0x450>
  402de4:	48 8d b4 24 50 40 00 	lea    0x4050(%rsp),%rsi
  402deb:	00 
  402dec:	b9 00 04 00 00       	mov    $0x400,%ecx
  402df1:	b8 00 00 00 00       	mov    $0x0,%eax
  402df6:	48 89 f7             	mov    %rsi,%rdi
  402df9:	f3 48 ab             	rep stos %rax,%es:(%rdi)
  402dfc:	4c 89 f7             	mov    %r14,%rdi
  402dff:	e8 77 fd ff ff       	call   402b7b <urlencode>
  402e04:	85 c0                	test   %eax,%eax
  402e06:	0f 88 42 03 00 00    	js     40314e <submitr+0x4c3>
  402e0c:	4c 8d bc 24 50 20 00 	lea    0x2050(%rsp),%r15
  402e13:	00 
  402e14:	48 83 ec 08          	sub    $0x8,%rsp
  402e18:	41 54                	push   %r12
  402e1a:	48 8d 84 24 60 40 00 	lea    0x4060(%rsp),%rax
  402e21:	00 
  402e22:	50                   	push   %rax
  402e23:	41 55                	push   %r13
  402e25:	4c 8b 4c 24 30       	mov    0x30(%rsp),%r9
  402e2a:	4c 8b 44 24 28       	mov    0x28(%rsp),%r8
  402e2f:	48 8d 0d 72 19 00 00 	lea    0x1972(%rip),%rcx        # 4047a8 <trans_char+0x38>
  402e36:	ba 00 20 00 00       	mov    $0x2000,%edx
  402e3b:	be 01 00 00 00       	mov    $0x1,%esi
  402e40:	4c 89 ff             	mov    %r15,%rdi
  402e43:	b8 00 00 00 00       	mov    $0x0,%eax
  402e48:	e8 03 e6 ff ff       	call   401450 <__sprintf_chk@plt>
  402e4d:	48 c7 c1 ff ff ff ff 	mov    $0xffffffffffffffff,%rcx
  402e54:	b8 00 00 00 00       	mov    $0x0,%eax
  402e59:	4c 89 ff             	mov    %r15,%rdi
  402e5c:	f2 ae                	repnz scas %es:(%rdi),%al
  402e5e:	48 f7 d1             	not    %rcx
  402e61:	48 8d 51 ff          	lea    -0x1(%rcx),%rdx
  402e65:	48 83 c4 20          	add    $0x20,%rsp
  402e69:	4c 89 fe             	mov    %r15,%rsi
  402e6c:	89 df                	mov    %ebx,%edi
  402e6e:	e8 82 fb ff ff       	call   4029f5 <rio_writen>
  402e73:	48 85 c0             	test   %rax,%rax
  402e76:	0f 88 5d 03 00 00    	js     4031d9 <submitr+0x54e>
  402e7c:	4c 8d 64 24 40       	lea    0x40(%rsp),%r12
  402e81:	89 de                	mov    %ebx,%esi
  402e83:	4c 89 e7             	mov    %r12,%rdi
  402e86:	e8 22 fb ff ff       	call   4029ad <rio_readinitb>
  402e8b:	48 8d b4 24 50 20 00 	lea    0x2050(%rsp),%rsi
  402e92:	00 
  402e93:	ba 00 20 00 00       	mov    $0x2000,%edx
  402e98:	4c 89 e7             	mov    %r12,%rdi
  402e9b:	e8 3a fc ff ff       	call   402ada <rio_readlineb>
  402ea0:	48 85 c0             	test   %rax,%rax
  402ea3:	0f 8e 9c 03 00 00    	jle    403245 <submitr+0x5ba>
  402ea9:	48 8d 4c 24 2c       	lea    0x2c(%rsp),%rcx
  402eae:	48 8d 94 24 50 60 00 	lea    0x6050(%rsp),%rdx
  402eb5:	00 
  402eb6:	48 8d bc 24 50 20 00 	lea    0x2050(%rsp),%rdi
  402ebd:	00 
  402ebe:	4c 8d 84 24 50 80 00 	lea    0x8050(%rsp),%r8
  402ec5:	00 
  402ec6:	48 8d 35 6f 19 00 00 	lea    0x196f(%rip),%rsi        # 40483c <trans_char+0xcc>
  402ecd:	b8 00 00 00 00       	mov    $0x0,%eax
  402ed2:	e8 c9 e4 ff ff       	call   4013a0 <__isoc99_sscanf@plt>
  402ed7:	48 8d b4 24 50 20 00 	lea    0x2050(%rsp),%rsi
  402ede:	00 
  402edf:	b9 03 00 00 00       	mov    $0x3,%ecx
  402ee4:	48 8d 3d 68 19 00 00 	lea    0x1968(%rip),%rdi        # 404853 <trans_char+0xe3>
  402eeb:	f3 a6                	repz cmpsb %es:(%rdi),%ds:(%rsi)
  402eed:	0f 97 c0             	seta   %al
  402ef0:	1c 00                	sbb    $0x0,%al
  402ef2:	84 c0                	test   %al,%al
  402ef4:	0f 84 cb 03 00 00    	je     4032c5 <submitr+0x63a>
  402efa:	48 8d b4 24 50 20 00 	lea    0x2050(%rsp),%rsi
  402f01:	00 
  402f02:	48 8d 7c 24 40       	lea    0x40(%rsp),%rdi
  402f07:	ba 00 20 00 00       	mov    $0x2000,%edx
  402f0c:	e8 c9 fb ff ff       	call   402ada <rio_readlineb>
  402f11:	48 85 c0             	test   %rax,%rax
  402f14:	7f c1                	jg     402ed7 <submitr+0x24c>
  402f16:	48 b8 45 72 72 6f 72 	movabs $0x43203a726f727245,%rax
  402f1d:	3a 20 43 
  402f20:	48 ba 6c 69 65 6e 74 	movabs $0x6e7520746e65696c,%rdx
  402f27:	20 75 6e 
  402f2a:	48 89 45 00          	mov    %rax,0x0(%rbp)
  402f2e:	48 89 55 08          	mov    %rdx,0x8(%rbp)
  402f32:	48 b8 61 62 6c 65 20 	movabs $0x206f7420656c6261,%rax
  402f39:	74 6f 20 
  402f3c:	48 ba 72 65 61 64 20 	movabs $0x6165682064616572,%rdx
  402f43:	68 65 61 
  402f46:	48 89 45 10          	mov    %rax,0x10(%rbp)
  402f4a:	48 89 55 18          	mov    %rdx,0x18(%rbp)
  402f4e:	48 b8 64 65 72 73 20 	movabs $0x6f72662073726564,%rax
  402f55:	66 72 6f 
  402f58:	48 ba 6d 20 41 75 74 	movabs $0x616c6f747541206d,%rdx
  402f5f:	6f 6c 61 
  402f62:	48 89 45 20          	mov    %rax,0x20(%rbp)
  402f66:	48 89 55 28          	mov    %rdx,0x28(%rbp)
  402f6a:	48 b8 62 20 73 65 72 	movabs $0x7265767265732062,%rax
  402f71:	76 65 72 
  402f74:	48 89 45 30          	mov    %rax,0x30(%rbp)
  402f78:	c6 45 38 00          	movb   $0x0,0x38(%rbp)
  402f7c:	89 df                	mov    %ebx,%edi
  402f7e:	e8 7d e3 ff ff       	call   401300 <close@plt>
  402f83:	b8 ff ff ff ff       	mov    $0xffffffff,%eax
  402f88:	48 8b 9c 24 58 a0 00 	mov    0xa058(%rsp),%rbx
  402f8f:	00 
  402f90:	64 48 33 1c 25 28 00 	xor    %fs:0x28,%rbx
  402f97:	00 00 
  402f99:	0f 85 96 04 00 00    	jne    403435 <submitr+0x7aa>
  402f9f:	48 81 c4 68 a0 00 00 	add    $0xa068,%rsp
  402fa6:	5b                   	pop    %rbx
  402fa7:	5d                   	pop    %rbp
  402fa8:	41 5c                	pop    %r12
  402faa:	41 5d                	pop    %r13
  402fac:	41 5e                	pop    %r14
  402fae:	41 5f                	pop    %r15
  402fb0:	c3                   	ret    
  402fb1:	48 b8 45 72 72 6f 72 	movabs $0x43203a726f727245,%rax
  402fb8:	3a 20 43 
  402fbb:	48 ba 6c 69 65 6e 74 	movabs $0x6e7520746e65696c,%rdx
  402fc2:	20 75 6e 
  402fc5:	48 89 45 00          	mov    %rax,0x0(%rbp)
  402fc9:	48 89 55 08          	mov    %rdx,0x8(%rbp)
  402fcd:	48 b8 61 62 6c 65 20 	movabs $0x206f7420656c6261,%rax
  402fd4:	74 6f 20 
  402fd7:	48 ba 63 72 65 61 74 	movabs $0x7320657461657263,%rdx
  402fde:	65 20 73 
  402fe1:	48 89 45 10          	mov    %rax,0x10(%rbp)
  402fe5:	48 89 55 18          	mov    %rdx,0x18(%rbp)
  402fe9:	c7 45 20 6f 63 6b 65 	movl   $0x656b636f,0x20(%rbp)
  402ff0:	66 c7 45 24 74 00    	movw   $0x74,0x24(%rbp)
  402ff6:	b8 ff ff ff ff       	mov    $0xffffffff,%eax
  402ffb:	eb 8b                	jmp    402f88 <submitr+0x2fd>
  402ffd:	48 b8 45 72 72 6f 72 	movabs $0x44203a726f727245,%rax
  403004:	3a 20 44 
  403007:	48 ba 4e 53 20 69 73 	movabs $0x6e7520736920534e,%rdx
  40300e:	20 75 6e 
  403011:	48 89 45 00          	mov    %rax,0x0(%rbp)
  403015:	48 89 55 08          	mov    %rdx,0x8(%rbp)
  403019:	48 b8 61 62 6c 65 20 	movabs $0x206f7420656c6261,%rax
  403020:	74 6f 20 
  403023:	48 ba 72 65 73 6f 6c 	movabs $0x2065766c6f736572,%rdx
  40302a:	76 65 20 
  40302d:	48 89 45 10          	mov    %rax,0x10(%rbp)
  403031:	48 89 55 18          	mov    %rdx,0x18(%rbp)
  403035:	48 b8 41 75 74 6f 6c 	movabs $0x2062616c6f747541,%rax
  40303c:	61 62 20 
  40303f:	48 ba 73 65 72 76 65 	movabs $0x6120726576726573,%rdx
  403046:	72 20 61 
  403049:	48 89 45 20          	mov    %rax,0x20(%rbp)
  40304d:	48 89 55 28          	mov    %rdx,0x28(%rbp)
  403051:	c7 45 30 64 64 72 65 	movl   $0x65726464,0x30(%rbp)
  403058:	66 c7 45 34 73 73    	movw   $0x7373,0x34(%rbp)
  40305e:	c6 45 36 00          	movb   $0x0,0x36(%rbp)
  403062:	89 df                	mov    %ebx,%edi
  403064:	e8 97 e2 ff ff       	call   401300 <close@plt>
  403069:	b8 ff ff ff ff       	mov    $0xffffffff,%eax
  40306e:	e9 15 ff ff ff       	jmp    402f88 <submitr+0x2fd>
  403073:	48 b8 45 72 72 6f 72 	movabs $0x55203a726f727245,%rax
  40307a:	3a 20 55 
  40307d:	48 ba 6e 61 62 6c 65 	movabs $0x6f7420656c62616e,%rdx
  403084:	20 74 6f 
  403087:	48 89 45 00          	mov    %rax,0x0(%rbp)
  40308b:	48 89 55 08          	mov    %rdx,0x8(%rbp)
  40308f:	48 b8 20 63 6f 6e 6e 	movabs $0x7463656e6e6f6320,%rax
  403096:	65 63 74 
  403099:	48 ba 20 74 6f 20 74 	movabs $0x20656874206f7420,%rdx
  4030a0:	68 65 20 
  4030a3:	48 89 45 10          	mov    %rax,0x10(%rbp)
  4030a7:	48 89 55 18          	mov    %rdx,0x18(%rbp)
  4030ab:	48 b8 41 75 74 6f 6c 	movabs $0x2062616c6f747541,%rax
  4030b2:	61 62 20 
  4030b5:	48 89 45 20          	mov    %rax,0x20(%rbp)
  4030b9:	c7 45 28 73 65 72 76 	movl   $0x76726573,0x28(%rbp)
  4030c0:	66 c7 45 2c 65 72    	movw   $0x7265,0x2c(%rbp)
  4030c6:	c6 45 2e 00          	movb   $0x0,0x2e(%rbp)
  4030ca:	89 df                	mov    %ebx,%edi
  4030cc:	e8 2f e2 ff ff       	call   401300 <close@plt>
  4030d1:	b8 ff ff ff ff       	mov    $0xffffffff,%eax
  4030d6:	e9 ad fe ff ff       	jmp    402f88 <submitr+0x2fd>
  4030db:	48 b8 45 72 72 6f 72 	movabs $0x52203a726f727245,%rax
  4030e2:	3a 20 52 
  4030e5:	48 ba 65 73 75 6c 74 	movabs $0x747320746c757365,%rdx
  4030ec:	20 73 74 
  4030ef:	48 89 45 00          	mov    %rax,0x0(%rbp)
  4030f3:	48 89 55 08          	mov    %rdx,0x8(%rbp)
  4030f7:	48 b8 72 69 6e 67 20 	movabs $0x6f6f7420676e6972,%rax
  4030fe:	74 6f 6f 
  403101:	48 ba 20 6c 61 72 67 	movabs $0x202e656772616c20,%rdx
  403108:	65 2e 20 
  40310b:	48 89 45 10          	mov    %rax,0x10(%rbp)
  40310f:	48 89 55 18          	mov    %rdx,0x18(%rbp)
  403113:	48 b8 49 6e 63 72 65 	movabs $0x6573616572636e49,%rax
  40311a:	61 73 65 
  40311d:	48 ba 20 53 55 42 4d 	movabs $0x5254494d42555320,%rdx
  403124:	49 54 52 
  403127:	48 89 45 20          	mov    %rax,0x20(%rbp)
  40312b:	48 89 55 28          	mov    %rdx,0x28(%rbp)
  40312f:	48 b8 5f 4d 41 58 42 	movabs $0x46554258414d5f,%rax
  403136:	55 46 00 
  403139:	48 89 45 30          	mov    %rax,0x30(%rbp)
  40313d:	89 df                	mov    %ebx,%edi
  40313f:	e8 bc e1 ff ff       	call   401300 <close@plt>
  403144:	b8 ff ff ff ff       	mov    $0xffffffff,%eax
  403149:	e9 3a fe ff ff       	jmp    402f88 <submitr+0x2fd>
  40314e:	48 b8 45 72 72 6f 72 	movabs $0x52203a726f727245,%rax
  403155:	3a 20 52 
  403158:	48 ba 65 73 75 6c 74 	movabs $0x747320746c757365,%rdx
  40315f:	20 73 74 
  403162:	48 89 45 00          	mov    %rax,0x0(%rbp)
  403166:	48 89 55 08          	mov    %rdx,0x8(%rbp)
  40316a:	48 b8 72 69 6e 67 20 	movabs $0x6e6f6320676e6972,%rax
  403171:	63 6f 6e 
  403174:	48 ba 74 61 69 6e 73 	movabs $0x6e6120736e696174,%rdx
  40317b:	20 61 6e 
  40317e:	48 89 45 10          	mov    %rax,0x10(%rbp)
  403182:	48 89 55 18          	mov    %rdx,0x18(%rbp)
  403186:	48 b8 20 69 6c 6c 65 	movabs $0x6c6167656c6c6920,%rax
  40318d:	67 61 6c 
  403190:	48 ba 20 6f 72 20 75 	movabs $0x72706e7520726f20,%rdx
  403197:	6e 70 72 
  40319a:	48 89 45 20          	mov    %rax,0x20(%rbp)
  40319e:	48 89 55 28          	mov    %rdx,0x28(%rbp)
  4031a2:	48 b8 69 6e 74 61 62 	movabs $0x20656c6261746e69,%rax
  4031a9:	6c 65 20 
  4031ac:	48 ba 63 68 61 72 61 	movabs $0x6574636172616863,%rdx
  4031b3:	63 74 65 
  4031b6:	48 89 45 30          	mov    %rax,0x30(%rbp)
  4031ba:	48 89 55 38          	mov    %rdx,0x38(%rbp)
  4031be:	66 c7 45 40 72 2e    	movw   $0x2e72,0x40(%rbp)
  4031c4:	c6 45 42 00          	movb   $0x0,0x42(%rbp)
  4031c8:	89 df                	mov    %ebx,%edi
  4031ca:	e8 31 e1 ff ff       	call   401300 <close@plt>
  4031cf:	b8 ff ff ff ff       	mov    $0xffffffff,%eax
  4031d4:	e9 af fd ff ff       	jmp    402f88 <submitr+0x2fd>
  4031d9:	48 b8 45 72 72 6f 72 	movabs $0x43203a726f727245,%rax
  4031e0:	3a 20 43 
  4031e3:	48 ba 6c 69 65 6e 74 	movabs $0x6e7520746e65696c,%rdx
  4031ea:	20 75 6e 
  4031ed:	48 89 45 00          	mov    %rax,0x0(%rbp)
  4031f1:	48 89 55 08          	mov    %rdx,0x8(%rbp)
  4031f5:	48 b8 61 62 6c 65 20 	movabs $0x206f7420656c6261,%rax
  4031fc:	74 6f 20 
  4031ff:	48 ba 77 72 69 74 65 	movabs $0x6f74206574697277,%rdx
  403206:	20 74 6f 
  403209:	48 89 45 10          	mov    %rax,0x10(%rbp)
  40320d:	48 89 55 18          	mov    %rdx,0x18(%rbp)
  403211:	48 b8 20 74 68 65 20 	movabs $0x7475412065687420,%rax
  403218:	41 75 74 
  40321b:	48 ba 6f 6c 61 62 20 	movabs $0x7265732062616c6f,%rdx
  403222:	73 65 72 
  403225:	48 89 45 20          	mov    %rax,0x20(%rbp)
  403229:	48 89 55 28          	mov    %rdx,0x28(%rbp)
  40322d:	c7 45 30 76 65 72 00 	movl   $0x726576,0x30(%rbp)
  403234:	89 df                	mov    %ebx,%edi
  403236:	e8 c5 e0 ff ff       	call   401300 <close@plt>
  40323b:	b8 ff ff ff ff       	mov    $0xffffffff,%eax
  403240:	e9 43 fd ff ff       	jmp    402f88 <submitr+0x2fd>
  403245:	48 b8 45 72 72 6f 72 	movabs $0x43203a726f727245,%rax
  40324c:	3a 20 43 
  40324f:	48 ba 6c 69 65 6e 74 	movabs $0x6e7520746e65696c,%rdx
  403256:	20 75 6e 
  403259:	48 89 45 00          	mov    %rax,0x0(%rbp)
  40325d:	48 89 55 08          	mov    %rdx,0x8(%rbp)
  403261:	48 b8 61 62 6c 65 20 	movabs $0x206f7420656c6261,%rax
  403268:	74 6f 20 
  40326b:	48 ba 72 65 61 64 20 	movabs $0x7269662064616572,%rdx
  403272:	66 69 72 
  403275:	48 89 45 10          	mov    %rax,0x10(%rbp)
  403279:	48 89 55 18          	mov    %rdx,0x18(%rbp)
  40327d:	48 b8 73 74 20 68 65 	movabs $0x6564616568207473,%rax
  403284:	61 64 65 
  403287:	48 ba 72 20 66 72 6f 	movabs $0x41206d6f72662072,%rdx
  40328e:	6d 20 41 
  403291:	48 89 45 20          	mov    %rax,0x20(%rbp)
  403295:	48 89 55 28          	mov    %rdx,0x28(%rbp)
  403299:	48 b8 75 74 6f 6c 61 	movabs $0x732062616c6f7475,%rax
  4032a0:	62 20 73 
  4032a3:	48 89 45 30          	mov    %rax,0x30(%rbp)
  4032a7:	c7 45 38 65 72 76 65 	movl   $0x65767265,0x38(%rbp)
  4032ae:	66 c7 45 3c 72 00    	movw   $0x72,0x3c(%rbp)
  4032b4:	89 df                	mov    %ebx,%edi
  4032b6:	e8 45 e0 ff ff       	call   401300 <close@plt>
  4032bb:	b8 ff ff ff ff       	mov    $0xffffffff,%eax
  4032c0:	e9 c3 fc ff ff       	jmp    402f88 <submitr+0x2fd>
  4032c5:	48 8d b4 24 50 20 00 	lea    0x2050(%rsp),%rsi
  4032cc:	00 
  4032cd:	48 8d 7c 24 40       	lea    0x40(%rsp),%rdi
  4032d2:	ba 00 20 00 00       	mov    $0x2000,%edx
  4032d7:	e8 fe f7 ff ff       	call   402ada <rio_readlineb>
  4032dc:	48 85 c0             	test   %rax,%rax
  4032df:	0f 8e 96 00 00 00    	jle    40337b <submitr+0x6f0>
  4032e5:	44 8b 44 24 2c       	mov    0x2c(%rsp),%r8d
  4032ea:	41 81 f8 c8 00 00 00 	cmp    $0xc8,%r8d
  4032f1:	0f 85 05 01 00 00    	jne    4033fc <submitr+0x771>
  4032f7:	48 8d b4 24 50 20 00 	lea    0x2050(%rsp),%rsi
  4032fe:	00 
  4032ff:	48 89 ef             	mov    %rbp,%rdi
  403302:	e8 99 df ff ff       	call   4012a0 <strcpy@plt>
  403307:	89 df                	mov    %ebx,%edi
  403309:	e8 f2 df ff ff       	call   401300 <close@plt>
  40330e:	b9 04 00 00 00       	mov    $0x4,%ecx
  403313:	48 8d 3d 33 15 00 00 	lea    0x1533(%rip),%rdi        # 40484d <trans_char+0xdd>
  40331a:	48 89 ee             	mov    %rbp,%rsi
  40331d:	f3 a6                	repz cmpsb %es:(%rdi),%ds:(%rsi)
  40331f:	0f 97 c0             	seta   %al
  403322:	1c 00                	sbb    $0x0,%al
  403324:	0f be c0             	movsbl %al,%eax
  403327:	85 c0                	test   %eax,%eax
  403329:	0f 84 59 fc ff ff    	je     402f88 <submitr+0x2fd>
  40332f:	b9 05 00 00 00       	mov    $0x5,%ecx
  403334:	48 8d 3d 16 15 00 00 	lea    0x1516(%rip),%rdi        # 404851 <trans_char+0xe1>
  40333b:	48 89 ee             	mov    %rbp,%rsi
  40333e:	f3 a6                	repz cmpsb %es:(%rdi),%ds:(%rsi)
  403340:	0f 97 c0             	seta   %al
  403343:	1c 00                	sbb    $0x0,%al
  403345:	0f be c0             	movsbl %al,%eax
  403348:	85 c0                	test   %eax,%eax
  40334a:	0f 84 38 fc ff ff    	je     402f88 <submitr+0x2fd>
  403350:	b9 03 00 00 00       	mov    $0x3,%ecx
  403355:	48 8d 3d fa 14 00 00 	lea    0x14fa(%rip),%rdi        # 404856 <trans_char+0xe6>
  40335c:	48 89 ee             	mov    %rbp,%rsi
  40335f:	f3 a6                	repz cmpsb %es:(%rdi),%ds:(%rsi)
  403361:	0f 97 c0             	seta   %al
  403364:	1c 00                	sbb    $0x0,%al
  403366:	0f be c0             	movsbl %al,%eax
  403369:	85 c0                	test   %eax,%eax
  40336b:	0f 84 17 fc ff ff    	je     402f88 <submitr+0x2fd>
  403371:	b8 ff ff ff ff       	mov    $0xffffffff,%eax
  403376:	e9 0d fc ff ff       	jmp    402f88 <submitr+0x2fd>
  40337b:	48 b8 45 72 72 6f 72 	movabs $0x43203a726f727245,%rax
  403382:	3a 20 43 
  403385:	48 ba 6c 69 65 6e 74 	movabs $0x6e7520746e65696c,%rdx
  40338c:	20 75 6e 
  40338f:	48 89 45 00          	mov    %rax,0x0(%rbp)
  403393:	48 89 55 08          	mov    %rdx,0x8(%rbp)
  403397:	48 b8 61 62 6c 65 20 	movabs $0x206f7420656c6261,%rax
  40339e:	74 6f 20 
  4033a1:	48 ba 72 65 61 64 20 	movabs $0x6174732064616572,%rdx
  4033a8:	73 74 61 
  4033ab:	48 89 45 10          	mov    %rax,0x10(%rbp)
  4033af:	48 89 55 18          	mov    %rdx,0x18(%rbp)
  4033b3:	48 b8 74 75 73 20 6d 	movabs $0x7373656d20737574,%rax
  4033ba:	65 73 73 
  4033bd:	48 ba 61 67 65 20 66 	movabs $0x6d6f726620656761,%rdx
  4033c4:	72 6f 6d 
  4033c7:	48 89 45 20          	mov    %rax,0x20(%rbp)
  4033cb:	48 89 55 28          	mov    %rdx,0x28(%rbp)
  4033cf:	48 b8 20 41 75 74 6f 	movabs $0x62616c6f74754120,%rax
  4033d6:	6c 61 62 
  4033d9:	48 ba 20 73 65 72 76 	movabs $0x72657672657320,%rdx
  4033e0:	65 72 00 
  4033e3:	48 89 45 30          	mov    %rax,0x30(%rbp)
  4033e7:	48 89 55 38          	mov    %rdx,0x38(%rbp)
  4033eb:	89 df                	mov    %ebx,%edi
  4033ed:	e8 0e df ff ff       	call   401300 <close@plt>
  4033f2:	b8 ff ff ff ff       	mov    $0xffffffff,%eax
  4033f7:	e9 8c fb ff ff       	jmp    402f88 <submitr+0x2fd>
  4033fc:	4c 8d 8c 24 50 80 00 	lea    0x8050(%rsp),%r9
  403403:	00 
  403404:	48 8d 0d fd 13 00 00 	lea    0x13fd(%rip),%rcx        # 404808 <trans_char+0x98>
  40340b:	48 c7 c2 ff ff ff ff 	mov    $0xffffffffffffffff,%rdx
  403412:	be 01 00 00 00       	mov    $0x1,%esi
  403417:	48 89 ef             	mov    %rbp,%rdi
  40341a:	b8 00 00 00 00       	mov    $0x0,%eax
  40341f:	e8 2c e0 ff ff       	call   401450 <__sprintf_chk@plt>
  403424:	89 df                	mov    %ebx,%edi
  403426:	e8 d5 de ff ff       	call   401300 <close@plt>
  40342b:	b8 ff ff ff ff       	mov    $0xffffffff,%eax
  403430:	e9 53 fb ff ff       	jmp    402f88 <submitr+0x2fd>
  403435:	e8 51 f3 ff ff       	call   40278b <__stack_chk_fail>

000000000040343a <init_timeout>:
  40343a:	f3 0f 1e fa          	endbr64 
  40343e:	85 ff                	test   %edi,%edi
  403440:	74 26                	je     403468 <init_timeout+0x2e>
  403442:	53                   	push   %rbx
  403443:	89 fb                	mov    %edi,%ebx
  403445:	78 1a                	js     403461 <init_timeout+0x27>
  403447:	48 8d 35 71 f5 ff ff 	lea    -0xa8f(%rip),%rsi        # 4029bf <sigalrm_handler>
  40344e:	bf 0e 00 00 00       	mov    $0xe,%edi
  403453:	e8 d8 de ff ff       	call   401330 <signal@plt>
  403458:	89 df                	mov    %ebx,%edi
  40345a:	e8 91 de ff ff       	call   4012f0 <alarm@plt>
  40345f:	5b                   	pop    %rbx
  403460:	c3                   	ret    
  403461:	bb 00 00 00 00       	mov    $0x0,%ebx
  403466:	eb df                	jmp    403447 <init_timeout+0xd>
  403468:	c3                   	ret    

0000000000403469 <init_driver>:
  403469:	f3 0f 1e fa          	endbr64 
  40346d:	41 54                	push   %r12
  40346f:	55                   	push   %rbp
  403470:	53                   	push   %rbx
  403471:	48 83 ec 20          	sub    $0x20,%rsp
  403475:	48 89 fd             	mov    %rdi,%rbp
  403478:	64 48 8b 04 25 28 00 	mov    %fs:0x28,%rax
  40347f:	00 00 
  403481:	48 89 44 24 18       	mov    %rax,0x18(%rsp)
  403486:	31 c0                	xor    %eax,%eax
  403488:	be 01 00 00 00       	mov    $0x1,%esi
  40348d:	bf 0d 00 00 00       	mov    $0xd,%edi
  403492:	e8 99 de ff ff       	call   401330 <signal@plt>
  403497:	be 01 00 00 00       	mov    $0x1,%esi
  40349c:	bf 1d 00 00 00       	mov    $0x1d,%edi
  4034a1:	e8 8a de ff ff       	call   401330 <signal@plt>
  4034a6:	be 01 00 00 00       	mov    $0x1,%esi
  4034ab:	bf 1d 00 00 00       	mov    $0x1d,%edi
  4034b0:	e8 7b de ff ff       	call   401330 <signal@plt>
  4034b5:	ba 00 00 00 00       	mov    $0x0,%edx
  4034ba:	be 01 00 00 00       	mov    $0x1,%esi
  4034bf:	bf 02 00 00 00       	mov    $0x2,%edi
  4034c4:	e8 97 df ff ff       	call   401460 <socket@plt>
  4034c9:	85 c0                	test   %eax,%eax
  4034cb:	0f 88 9c 00 00 00    	js     40356d <init_driver+0x104>
  4034d1:	89 c3                	mov    %eax,%ebx
  4034d3:	48 8d 3d 7f 13 00 00 	lea    0x137f(%rip),%rdi        # 404859 <trans_char+0xe9>
  4034da:	e8 61 de ff ff       	call   401340 <gethostbyname@plt>
  4034df:	48 85 c0             	test   %rax,%rax
  4034e2:	0f 84 d1 00 00 00    	je     4035b9 <init_driver+0x150>
  4034e8:	49 89 e4             	mov    %rsp,%r12
  4034eb:	48 c7 04 24 00 00 00 	movq   $0x0,(%rsp)
  4034f2:	00 
  4034f3:	48 c7 44 24 08 00 00 	movq   $0x0,0x8(%rsp)
  4034fa:	00 00 
  4034fc:	66 c7 04 24 02 00    	movw   $0x2,(%rsp)
  403502:	48 63 50 14          	movslq 0x14(%rax),%rdx
  403506:	48 8b 40 18          	mov    0x18(%rax),%rax
  40350a:	48 8b 30             	mov    (%rax),%rsi
  40350d:	48 8d 7c 24 04       	lea    0x4(%rsp),%rdi
  403512:	b9 0c 00 00 00       	mov    $0xc,%ecx
  403517:	e8 34 de ff ff       	call   401350 <__memmove_chk@plt>
  40351c:	66 c7 44 24 02 30 39 	movw   $0x3930,0x2(%rsp)
  403523:	ba 10 00 00 00       	mov    $0x10,%edx
  403528:	4c 89 e6             	mov    %r12,%rsi
  40352b:	89 df                	mov    %ebx,%edi
  40352d:	e8 ee de ff ff       	call   401420 <connect@plt>
  403532:	85 c0                	test   %eax,%eax
  403534:	0f 88 e7 00 00 00    	js     403621 <init_driver+0x1b8>
  40353a:	89 df                	mov    %ebx,%edi
  40353c:	e8 bf dd ff ff       	call   401300 <close@plt>
  403541:	66 c7 45 00 4f 4b    	movw   $0x4b4f,0x0(%rbp)
  403547:	c6 45 02 00          	movb   $0x0,0x2(%rbp)
  40354b:	b8 00 00 00 00       	mov    $0x0,%eax
  403550:	48 8b 4c 24 18       	mov    0x18(%rsp),%rcx
  403555:	64 48 33 0c 25 28 00 	xor    %fs:0x28,%rcx
  40355c:	00 00 
  40355e:	0f 85 10 01 00 00    	jne    403674 <init_driver+0x20b>
  403564:	48 83 c4 20          	add    $0x20,%rsp
  403568:	5b                   	pop    %rbx
  403569:	5d                   	pop    %rbp
  40356a:	41 5c                	pop    %r12
  40356c:	c3                   	ret    
  40356d:	48 b8 45 72 72 6f 72 	movabs $0x43203a726f727245,%rax
  403574:	3a 20 43 
  403577:	48 ba 6c 69 65 6e 74 	movabs $0x6e7520746e65696c,%rdx
  40357e:	20 75 6e 
  403581:	48 89 45 00          	mov    %rax,0x0(%rbp)
  403585:	48 89 55 08          	mov    %rdx,0x8(%rbp)
  403589:	48 b8 61 62 6c 65 20 	movabs $0x206f7420656c6261,%rax
  403590:	74 6f 20 
  403593:	48 ba 63 72 65 61 74 	movabs $0x7320657461657263,%rdx
  40359a:	65 20 73 
  40359d:	48 89 45 10          	mov    %rax,0x10(%rbp)
  4035a1:	48 89 55 18          	mov    %rdx,0x18(%rbp)
  4035a5:	c7 45 20 6f 63 6b 65 	movl   $0x656b636f,0x20(%rbp)
  4035ac:	66 c7 45 24 74 00    	movw   $0x74,0x24(%rbp)
  4035b2:	b8 ff ff ff ff       	mov    $0xffffffff,%eax
  4035b7:	eb 97                	jmp    403550 <init_driver+0xe7>
  4035b9:	48 b8 45 72 72 6f 72 	movabs $0x44203a726f727245,%rax
  4035c0:	3a 20 44 
  4035c3:	48 ba 4e 53 20 69 73 	movabs $0x6e7520736920534e,%rdx
  4035ca:	20 75 6e 
  4035cd:	48 89 45 00          	mov    %rax,0x0(%rbp)
  4035d1:	48 89 55 08          	mov    %rdx,0x8(%rbp)
  4035d5:	48 b8 61 62 6c 65 20 	movabs $0x206f7420656c6261,%rax
  4035dc:	74 6f 20 
  4035df:	48 ba 72 65 73 6f 6c 	movabs $0x2065766c6f736572,%rdx
  4035e6:	76 65 20 
  4035e9:	48 89 45 10          	mov    %rax,0x10(%rbp)
  4035ed:	48 89 55 18          	mov    %rdx,0x18(%rbp)
  4035f1:	48 b8 73 65 72 76 65 	movabs $0x6120726576726573,%rax
  4035f8:	72 20 61 
  4035fb:	48 89 45 20          	mov    %rax,0x20(%rbp)
  4035ff:	c7 45 28 64 64 72 65 	movl   $0x65726464,0x28(%rbp)
  403606:	66 c7 45 2c 73 73    	movw   $0x7373,0x2c(%rbp)
  40360c:	c6 45 2e 00          	movb   $0x0,0x2e(%rbp)
  403610:	89 df                	mov    %ebx,%edi
  403612:	e8 e9 dc ff ff       	call   401300 <close@plt>
  403617:	b8 ff ff ff ff       	mov    $0xffffffff,%eax
  40361c:	e9 2f ff ff ff       	jmp    403550 <init_driver+0xe7>
  403621:	48 b8 45 72 72 6f 72 	movabs $0x55203a726f727245,%rax
  403628:	3a 20 55 
  40362b:	48 ba 6e 61 62 6c 65 	movabs $0x6f7420656c62616e,%rdx
  403632:	20 74 6f 
  403635:	48 89 45 00          	mov    %rax,0x0(%rbp)
  403639:	48 89 55 08          	mov    %rdx,0x8(%rbp)
  40363d:	48 b8 20 63 6f 6e 6e 	movabs $0x7463656e6e6f6320,%rax
  403644:	65 63 74 
  403647:	48 ba 20 74 6f 20 73 	movabs $0x76726573206f7420,%rdx
  40364e:	65 72 76 
  403651:	48 89 45 10          	mov    %rax,0x10(%rbp)
  403655:	48 89 55 18          	mov    %rdx,0x18(%rbp)
  403659:	66 c7 45 20 65 72    	movw   $0x7265,0x20(%rbp)
  40365f:	c6 45 22 00          	movb   $0x0,0x22(%rbp)
  403663:	89 df                	mov    %ebx,%edi
  403665:	e8 96 dc ff ff       	call   401300 <close@plt>
  40366a:	b8 ff ff ff ff       	mov    $0xffffffff,%eax
  40366f:	e9 dc fe ff ff       	jmp    403550 <init_driver+0xe7>
  403674:	e8 12 f1 ff ff       	call   40278b <__stack_chk_fail>

0000000000403679 <driver_post>:
  403679:	f3 0f 1e fa          	endbr64 
  40367d:	53                   	push   %rbx
  40367e:	4c 89 cb             	mov    %r9,%rbx
  403681:	45 85 c0             	test   %r8d,%r8d
  403684:	75 18                	jne    40369e <driver_post+0x25>
  403686:	48 85 ff             	test   %rdi,%rdi
  403689:	74 05                	je     403690 <driver_post+0x17>
  40368b:	80 3f 00             	cmpb   $0x0,(%rdi)
  40368e:	75 37                	jne    4036c7 <driver_post+0x4e>
  403690:	66 c7 03 4f 4b       	movw   $0x4b4f,(%rbx)
  403695:	c6 43 02 00          	movb   $0x0,0x2(%rbx)
  403699:	44 89 c0             	mov    %r8d,%eax
  40369c:	5b                   	pop    %rbx
  40369d:	c3                   	ret    
  40369e:	48 89 ca             	mov    %rcx,%rdx
  4036a1:	48 8d 35 c1 11 00 00 	lea    0x11c1(%rip),%rsi        # 404869 <trans_char+0xf9>
  4036a8:	bf 01 00 00 00       	mov    $0x1,%edi
  4036ad:	b8 00 00 00 00       	mov    $0x0,%eax
  4036b2:	e8 09 dd ff ff       	call   4013c0 <__printf_chk@plt>
  4036b7:	66 c7 03 4f 4b       	movw   $0x4b4f,(%rbx)
  4036bc:	c6 43 02 00          	movb   $0x0,0x2(%rbx)
  4036c0:	b8 00 00 00 00       	mov    $0x0,%eax
  4036c5:	eb d5                	jmp    40369c <driver_post+0x23>
  4036c7:	48 83 ec 08          	sub    $0x8,%rsp
  4036cb:	41 51                	push   %r9
  4036cd:	49 89 c9             	mov    %rcx,%r9
  4036d0:	49 89 d0             	mov    %rdx,%r8
  4036d3:	48 89 f9             	mov    %rdi,%rcx
  4036d6:	48 89 f2             	mov    %rsi,%rdx
  4036d9:	be 39 30 00 00       	mov    $0x3039,%esi
  4036de:	48 8d 3d 74 11 00 00 	lea    0x1174(%rip),%rdi        # 404859 <trans_char+0xe9>
  4036e5:	e8 a1 f5 ff ff       	call   402c8b <submitr>
  4036ea:	48 83 c4 10          	add    $0x10,%rsp
  4036ee:	eb ac                	jmp    40369c <driver_post+0x23>

00000000004036f0 <check>:
  4036f0:	f3 0f 1e fa          	endbr64 
  4036f4:	89 f8                	mov    %edi,%eax
  4036f6:	c1 e8 1c             	shr    $0x1c,%eax
  4036f9:	74 1d                	je     403718 <check+0x28>
  4036fb:	b9 00 00 00 00       	mov    $0x0,%ecx
  403700:	83 f9 1f             	cmp    $0x1f,%ecx
  403703:	7f 0d                	jg     403712 <check+0x22>
  403705:	89 f8                	mov    %edi,%eax
  403707:	d3 e8                	shr    %cl,%eax
  403709:	3c 0a                	cmp    $0xa,%al
  40370b:	74 11                	je     40371e <check+0x2e>
  40370d:	83 c1 08             	add    $0x8,%ecx
  403710:	eb ee                	jmp    403700 <check+0x10>
  403712:	b8 01 00 00 00       	mov    $0x1,%eax
  403717:	c3                   	ret    
  403718:	b8 00 00 00 00       	mov    $0x0,%eax
  40371d:	c3                   	ret    
  40371e:	b8 00 00 00 00       	mov    $0x0,%eax
  403723:	c3                   	ret    

0000000000403724 <gencookie>:
  403724:	f3 0f 1e fa          	endbr64 
  403728:	53                   	push   %rbx
  403729:	83 c7 01             	add    $0x1,%edi
  40372c:	e8 3f db ff ff       	call   401270 <srandom@plt>
  403731:	e8 5a dc ff ff       	call   401390 <random@plt>
  403736:	48 89 c7             	mov    %rax,%rdi
  403739:	89 c3                	mov    %eax,%ebx
  40373b:	e8 b0 ff ff ff       	call   4036f0 <check>
  403740:	85 c0                	test   %eax,%eax
  403742:	74 ed                	je     403731 <gencookie+0xd>
  403744:	89 d8                	mov    %ebx,%eax
  403746:	5b                   	pop    %rbx
  403747:	c3                   	ret    
  403748:	0f 1f 84 00 00 00 00 	nopl   0x0(%rax,%rax,1)
  40374f:	00 

0000000000403750 <__libc_csu_init>:
  403750:	f3 0f 1e fa          	endbr64 
  403754:	41 57                	push   %r15
  403756:	4c 8d 3d b3 36 00 00 	lea    0x36b3(%rip),%r15        # 406e10 <__frame_dummy_init_array_entry>
  40375d:	41 56                	push   %r14
  40375f:	49 89 d6             	mov    %rdx,%r14
  403762:	41 55                	push   %r13
  403764:	49 89 f5             	mov    %rsi,%r13
  403767:	41 54                	push   %r12
  403769:	41 89 fc             	mov    %edi,%r12d
  40376c:	55                   	push   %rbp
  40376d:	48 8d 2d a4 36 00 00 	lea    0x36a4(%rip),%rbp        # 406e18 <__do_global_dtors_aux_fini_array_entry>
  403774:	53                   	push   %rbx
  403775:	4c 29 fd             	sub    %r15,%rbp
  403778:	48 83 ec 08          	sub    $0x8,%rsp
  40377c:	e8 7f d8 ff ff       	call   401000 <_init>
  403781:	48 c1 fd 03          	sar    $0x3,%rbp
  403785:	74 1f                	je     4037a6 <__libc_csu_init+0x56>
  403787:	31 db                	xor    %ebx,%ebx
  403789:	0f 1f 80 00 00 00 00 	nopl   0x0(%rax)
  403790:	4c 89 f2             	mov    %r14,%rdx
  403793:	4c 89 ee             	mov    %r13,%rsi
  403796:	44 89 e7             	mov    %r12d,%edi
  403799:	41 ff 14 df          	call   *(%r15,%rbx,8)
  40379d:	48 83 c3 01          	add    $0x1,%rbx
  4037a1:	48 39 dd             	cmp    %rbx,%rbp
  4037a4:	75 ea                	jne    403790 <__libc_csu_init+0x40>
  4037a6:	48 83 c4 08          	add    $0x8,%rsp
  4037aa:	5b                   	pop    %rbx
  4037ab:	5d                   	pop    %rbp
  4037ac:	41 5c                	pop    %r12
  4037ae:	41 5d                	pop    %r13
  4037b0:	41 5e                	pop    %r14
  4037b2:	41 5f                	pop    %r15
  4037b4:	c3                   	ret    
  4037b5:	66 66 2e 0f 1f 84 00 	data16 cs nopw 0x0(%rax,%rax,1)
  4037bc:	00 00 00 00 

00000000004037c0 <__libc_csu_fini>:
  4037c0:	f3 0f 1e fa          	endbr64 
  4037c4:	c3                   	ret    

Disassembly of section .fini:

00000000004037c8 <_fini>:
  4037c8:	f3 0f 1e fa          	endbr64 
  4037cc:	48 83 ec 08          	sub    $0x8,%rsp
  4037d0:	48 83 c4 08          	add    $0x8,%rsp
  4037d4:	c3                   	ret    
